Archive member included because of file (symbol)

c:/program files (x86)/gnu tools arm embedded/4.9 2014q4/bin/../lib/gcc/arm-none-eabi/4.9.3/../../../../arm-none-eabi/lib/armv7e-m/softfp\libm.a(lib_a-s_cos.o)
                              ..\obj\arduimu.o (cos)
c:/program files (x86)/gnu tools arm embedded/4.9 2014q4/bin/../lib/gcc/arm-none-eabi/4.9.3/../../../../arm-none-eabi/lib/armv7e-m/softfp\libm.a(lib_a-s_sin.o)
                              ..\obj\arduimu.o (sin)
c:/program files (x86)/gnu tools arm embedded/4.9 2014q4/bin/../lib/gcc/arm-none-eabi/4.9.3/../../../../arm-none-eabi/lib/armv7e-m/softfp\libm.a(lib_a-w_asin.o)
                              ..\obj\DCM.o (asin)
c:/program files (x86)/gnu tools arm embedded/4.9 2014q4/bin/../lib/gcc/arm-none-eabi/4.9.3/../../../../arm-none-eabi/lib/armv7e-m/softfp\libm.a(lib_a-w_atan2.o)
                              ..\obj\DCM.o (atan2)
c:/program files (x86)/gnu tools arm embedded/4.9 2014q4/bin/../lib/gcc/arm-none-eabi/4.9.3/../../../../arm-none-eabi/lib/armv7e-m/softfp\libm.a(lib_a-w_pow.o)
                              ..\obj\MS5611.o (pow)
c:/program files (x86)/gnu tools arm embedded/4.9 2014q4/bin/../lib/gcc/arm-none-eabi/4.9.3/../../../../arm-none-eabi/lib/armv7e-m/softfp\libm.a(lib_a-w_sqrt.o)
                              ..\obj\DCM.o (sqrt)
c:/program files (x86)/gnu tools arm embedded/4.9 2014q4/bin/../lib/gcc/arm-none-eabi/4.9.3/../../../../arm-none-eabi/lib/armv7e-m/softfp\libm.a(lib_a-e_asin.o)
                              c:/program files (x86)/gnu tools arm embedded/4.9 2014q4/bin/../lib/gcc/arm-none-eabi/4.9.3/../../../../arm-none-eabi/lib/armv7e-m/softfp\libm.a(lib_a-w_asin.o) (__ieee754_asin)
c:/program files (x86)/gnu tools arm embedded/4.9 2014q4/bin/../lib/gcc/arm-none-eabi/4.9.3/../../../../arm-none-eabi/lib/armv7e-m/softfp\libm.a(lib_a-e_atan2.o)
                              c:/program files (x86)/gnu tools arm embedded/4.9 2014q4/bin/../lib/gcc/arm-none-eabi/4.9.3/../../../../arm-none-eabi/lib/armv7e-m/softfp\libm.a(lib_a-w_atan2.o) (__ieee754_atan2)
c:/program files (x86)/gnu tools arm embedded/4.9 2014q4/bin/../lib/gcc/arm-none-eabi/4.9.3/../../../../arm-none-eabi/lib/armv7e-m/softfp\libm.a(lib_a-e_pow.o)
                              c:/program files (x86)/gnu tools arm embedded/4.9 2014q4/bin/../lib/gcc/arm-none-eabi/4.9.3/../../../../arm-none-eabi/lib/armv7e-m/softfp\libm.a(lib_a-w_pow.o) (__ieee754_pow)
c:/program files (x86)/gnu tools arm embedded/4.9 2014q4/bin/../lib/gcc/arm-none-eabi/4.9.3/../../../../arm-none-eabi/lib/armv7e-m/softfp\libm.a(lib_a-e_rem_pio2.o)
                              c:/program files (x86)/gnu tools arm embedded/4.9 2014q4/bin/../lib/gcc/arm-none-eabi/4.9.3/../../../../arm-none-eabi/lib/armv7e-m/softfp\libm.a(lib_a-s_cos.o) (__ieee754_rem_pio2)
c:/program files (x86)/gnu tools arm embedded/4.9 2014q4/bin/../lib/gcc/arm-none-eabi/4.9.3/../../../../arm-none-eabi/lib/armv7e-m/softfp\libm.a(lib_a-e_sqrt.o)
                              c:/program files (x86)/gnu tools arm embedded/4.9 2014q4/bin/../lib/gcc/arm-none-eabi/4.9.3/../../../../arm-none-eabi/lib/armv7e-m/softfp\libm.a(lib_a-w_sqrt.o) (__ieee754_sqrt)
c:/program files (x86)/gnu tools arm embedded/4.9 2014q4/bin/../lib/gcc/arm-none-eabi/4.9.3/../../../../arm-none-eabi/lib/armv7e-m/softfp\libm.a(lib_a-k_cos.o)
                              c:/program files (x86)/gnu tools arm embedded/4.9 2014q4/bin/../lib/gcc/arm-none-eabi/4.9.3/../../../../arm-none-eabi/lib/armv7e-m/softfp\libm.a(lib_a-s_cos.o) (__kernel_cos)
c:/program files (x86)/gnu tools arm embedded/4.9 2014q4/bin/../lib/gcc/arm-none-eabi/4.9.3/../../../../arm-none-eabi/lib/armv7e-m/softfp\libm.a(lib_a-k_rem_pio2.o)
                              c:/program files (x86)/gnu tools arm embedded/4.9 2014q4/bin/../lib/gcc/arm-none-eabi/4.9.3/../../../../arm-none-eabi/lib/armv7e-m/softfp\libm.a(lib_a-e_rem_pio2.o) (__kernel_rem_pio2)
c:/program files (x86)/gnu tools arm embedded/4.9 2014q4/bin/../lib/gcc/arm-none-eabi/4.9.3/../../../../arm-none-eabi/lib/armv7e-m/softfp\libm.a(lib_a-k_sin.o)
                              c:/program files (x86)/gnu tools arm embedded/4.9 2014q4/bin/../lib/gcc/arm-none-eabi/4.9.3/../../../../arm-none-eabi/lib/armv7e-m/softfp\libm.a(lib_a-s_cos.o) (__kernel_sin)
c:/program files (x86)/gnu tools arm embedded/4.9 2014q4/bin/../lib/gcc/arm-none-eabi/4.9.3/../../../../arm-none-eabi/lib/armv7e-m/softfp\libm.a(lib_a-s_atan.o)
                              c:/program files (x86)/gnu tools arm embedded/4.9 2014q4/bin/../lib/gcc/arm-none-eabi/4.9.3/../../../../arm-none-eabi/lib/armv7e-m/softfp\libm.a(lib_a-e_atan2.o) (atan)
c:/program files (x86)/gnu tools arm embedded/4.9 2014q4/bin/../lib/gcc/arm-none-eabi/4.9.3/../../../../arm-none-eabi/lib/armv7e-m/softfp\libm.a(lib_a-s_fabs.o)
                              c:/program files (x86)/gnu tools arm embedded/4.9 2014q4/bin/../lib/gcc/arm-none-eabi/4.9.3/../../../../arm-none-eabi/lib/armv7e-m/softfp\libm.a(lib_a-w_asin.o) (fabs)
c:/program files (x86)/gnu tools arm embedded/4.9 2014q4/bin/../lib/gcc/arm-none-eabi/4.9.3/../../../../arm-none-eabi/lib/armv7e-m/softfp\libm.a(lib_a-s_finite.o)
                              c:/program files (x86)/gnu tools arm embedded/4.9 2014q4/bin/../lib/gcc/arm-none-eabi/4.9.3/../../../../arm-none-eabi/lib/armv7e-m/softfp\libm.a(lib_a-w_pow.o) (finite)
c:/program files (x86)/gnu tools arm embedded/4.9 2014q4/bin/../lib/gcc/arm-none-eabi/4.9.3/../../../../arm-none-eabi/lib/armv7e-m/softfp\libm.a(lib_a-s_floor.o)
                              c:/program files (x86)/gnu tools arm embedded/4.9 2014q4/bin/../lib/gcc/arm-none-eabi/4.9.3/../../../../arm-none-eabi/lib/armv7e-m/softfp\libm.a(lib_a-k_rem_pio2.o) (floor)
c:/program files (x86)/gnu tools arm embedded/4.9 2014q4/bin/../lib/gcc/arm-none-eabi/4.9.3/../../../../arm-none-eabi/lib/armv7e-m/softfp\libm.a(lib_a-s_fpclassify.o)
                              c:/program files (x86)/gnu tools arm embedded/4.9 2014q4/bin/../lib/gcc/arm-none-eabi/4.9.3/../../../../arm-none-eabi/lib/armv7e-m/softfp\libm.a(lib_a-w_asin.o) (__fpclassifyd)
c:/program files (x86)/gnu tools arm embedded/4.9 2014q4/bin/../lib/gcc/arm-none-eabi/4.9.3/../../../../arm-none-eabi/lib/armv7e-m/softfp\libm.a(lib_a-s_lib_ver.o)
                              c:/program files (x86)/gnu tools arm embedded/4.9 2014q4/bin/../lib/gcc/arm-none-eabi/4.9.3/../../../../arm-none-eabi/lib/armv7e-m/softfp\libm.a(lib_a-w_asin.o) (__fdlib_version)
c:/program files (x86)/gnu tools arm embedded/4.9 2014q4/bin/../lib/gcc/arm-none-eabi/4.9.3/../../../../arm-none-eabi/lib/armv7e-m/softfp\libm.a(lib_a-s_matherr.o)
                              c:/program files (x86)/gnu tools arm embedded/4.9 2014q4/bin/../lib/gcc/arm-none-eabi/4.9.3/../../../../arm-none-eabi/lib/armv7e-m/softfp\libm.a(lib_a-w_asin.o) (matherr)
c:/program files (x86)/gnu tools arm embedded/4.9 2014q4/bin/../lib/gcc/arm-none-eabi/4.9.3/../../../../arm-none-eabi/lib/armv7e-m/softfp\libm.a(lib_a-s_nan.o)
                              c:/program files (x86)/gnu tools arm embedded/4.9 2014q4/bin/../lib/gcc/arm-none-eabi/4.9.3/../../../../arm-none-eabi/lib/armv7e-m/softfp\libm.a(lib_a-w_asin.o) (nan)
c:/program files (x86)/gnu tools arm embedded/4.9 2014q4/bin/../lib/gcc/arm-none-eabi/4.9.3/../../../../arm-none-eabi/lib/armv7e-m/softfp\libm.a(lib_a-s_rint.o)
                              c:/program files (x86)/gnu tools arm embedded/4.9 2014q4/bin/../lib/gcc/arm-none-eabi/4.9.3/../../../../arm-none-eabi/lib/armv7e-m/softfp\libm.a(lib_a-w_pow.o) (rint)
c:/program files (x86)/gnu tools arm embedded/4.9 2014q4/bin/../lib/gcc/arm-none-eabi/4.9.3/../../../../arm-none-eabi/lib/armv7e-m/softfp\libm.a(lib_a-s_scalbn.o)
                              c:/program files (x86)/gnu tools arm embedded/4.9 2014q4/bin/../lib/gcc/arm-none-eabi/4.9.3/../../../../arm-none-eabi/lib/armv7e-m/softfp\libm.a(lib_a-e_pow.o) (scalbn)
c:/program files (x86)/gnu tools arm embedded/4.9 2014q4/bin/../lib/gcc/arm-none-eabi/4.9.3/../../../../arm-none-eabi/lib/armv7e-m/softfp\libm.a(lib_a-s_copysign.o)
                              c:/program files (x86)/gnu tools arm embedded/4.9 2014q4/bin/../lib/gcc/arm-none-eabi/4.9.3/../../../../arm-none-eabi/lib/armv7e-m/softfp\libm.a(lib_a-s_scalbn.o) (copysign)
c:/program files (x86)/gnu tools arm embedded/4.9 2014q4/bin/../lib/gcc/arm-none-eabi/4.9.3/armv7e-m/softfp\libgcc.a(_arm_addsubdf3.o)
                              ..\obj\MS5611.o (__aeabi_dsub)
c:/program files (x86)/gnu tools arm embedded/4.9 2014q4/bin/../lib/gcc/arm-none-eabi/4.9.3/armv7e-m/softfp\libgcc.a(_arm_muldivdf3.o)
                              ..\obj\MS5611.o (__aeabi_dmul)
c:/program files (x86)/gnu tools arm embedded/4.9 2014q4/bin/../lib/gcc/arm-none-eabi/4.9.3/armv7e-m/softfp\libgcc.a(_arm_cmpdf2.o)
                              c:/program files (x86)/gnu tools arm embedded/4.9 2014q4/bin/../lib/gcc/arm-none-eabi/4.9.3/../../../../arm-none-eabi/lib/armv7e-m/softfp\libm.a(lib_a-w_pow.o) (__aeabi_dcmpeq)
c:/program files (x86)/gnu tools arm embedded/4.9 2014q4/bin/../lib/gcc/arm-none-eabi/4.9.3/armv7e-m/softfp\libgcc.a(_arm_fixdfsi.o)
                              ..\obj\gps.o (__aeabi_d2iz)
c:/program files (x86)/gnu tools arm embedded/4.9 2014q4/bin/../lib/gcc/arm-none-eabi/4.9.3/armv7e-m/softfp\libgcc.a(_arm_fixunsdfsi.o)
                              ..\obj\power_propulsion.o (__aeabi_d2uiz)
c:/program files (x86)/gnu tools arm embedded/4.9 2014q4/bin/../lib/gcc/arm-none-eabi/4.9.3/armv7e-m/softfp\libgcc.a(_arm_truncdfsf2.o)
                              ..\obj\MS5611.o (__aeabi_d2f)
c:/program files (x86)/gnu tools arm embedded/4.9 2014q4/bin/../lib/gcc/arm-none-eabi/4.9.3/armv7e-m/softfp\libgcc.a(_arm_addsubsf3.o)
                              ..\obj\MS5611.o (__aeabi_l2f)
c:/program files (x86)/gnu tools arm embedded/4.9 2014q4/bin/../lib/gcc/arm-none-eabi/4.9.3/../../../../arm-none-eabi/lib/armv7e-m/softfp\libg.a(lib_a-errno.o)
                              c:/program files (x86)/gnu tools arm embedded/4.9 2014q4/bin/../lib/gcc/arm-none-eabi/4.9.3/../../../../arm-none-eabi/lib/armv7e-m/softfp\libm.a(lib_a-w_asin.o) (__errno)
c:/program files (x86)/gnu tools arm embedded/4.9 2014q4/bin/../lib/gcc/arm-none-eabi/4.9.3/../../../../arm-none-eabi/lib/armv7e-m/softfp\libg.a(lib_a-impure.o)
                              c:/program files (x86)/gnu tools arm embedded/4.9 2014q4/bin/../lib/gcc/arm-none-eabi/4.9.3/../../../../arm-none-eabi/lib/armv7e-m/softfp\libg.a(lib_a-errno.o) (_impure_ptr)
c:/program files (x86)/gnu tools arm embedded/4.9 2014q4/bin/../lib/gcc/arm-none-eabi/4.9.3/../../../../arm-none-eabi/lib/armv7e-m/softfp\libg.a(lib_a-memcpy.o)
                              ..\obj\MS5611.o (memcpy)
c:/program files (x86)/gnu tools arm embedded/4.9 2014q4/bin/../lib/gcc/arm-none-eabi/4.9.3/../../../../arm-none-eabi/lib/armv7e-m/softfp\libg.a(lib_a-memset.o)
                              ..\obj\MS5611.o (memset)
c:/program files (x86)/gnu tools arm embedded/4.9 2014q4/bin/../lib/gcc/arm-none-eabi/4.9.3/../../../../arm-none-eabi/lib/armv7e-m/softfp\libg.a(lib_a-sprintf.o)
                              ..\obj\log.o (sprintf)
c:/program files (x86)/gnu tools arm embedded/4.9 2014q4/bin/../lib/gcc/arm-none-eabi/4.9.3/../../../../arm-none-eabi/lib/armv7e-m/softfp\libg.a(lib_a-strcat.o)
                              ..\obj\log.o (strcat)
c:/program files (x86)/gnu tools arm embedded/4.9 2014q4/bin/../lib/gcc/arm-none-eabi/4.9.3/../../../../arm-none-eabi/lib/armv7e-m/softfp\libg.a(lib_a-strcpy.o)
                              c:/program files (x86)/gnu tools arm embedded/4.9 2014q4/bin/../lib/gcc/arm-none-eabi/4.9.3/../../../../arm-none-eabi/lib/armv7e-m/softfp\libg.a(lib_a-strcat.o) (strcpy)
c:/program files (x86)/gnu tools arm embedded/4.9 2014q4/bin/../lib/gcc/arm-none-eabi/4.9.3/../../../../arm-none-eabi/lib/armv7e-m/softfp\libg.a(lib_a-svfprintf.o)
                              c:/program files (x86)/gnu tools arm embedded/4.9 2014q4/bin/../lib/gcc/arm-none-eabi/4.9.3/../../../../arm-none-eabi/lib/armv7e-m/softfp\libg.a(lib_a-sprintf.o) (_svfprintf_r)
c:/program files (x86)/gnu tools arm embedded/4.9 2014q4/bin/../lib/gcc/arm-none-eabi/4.9.3/../../../../arm-none-eabi/lib/armv7e-m/softfp\libg.a(lib_a-dtoa.o)
                              c:/program files (x86)/gnu tools arm embedded/4.9 2014q4/bin/../lib/gcc/arm-none-eabi/4.9.3/../../../../arm-none-eabi/lib/armv7e-m/softfp\libg.a(lib_a-svfprintf.o) (_dtoa_r)
c:/program files (x86)/gnu tools arm embedded/4.9 2014q4/bin/../lib/gcc/arm-none-eabi/4.9.3/../../../../arm-none-eabi/lib/armv7e-m/softfp\libg.a(lib_a-locale.o)
                              c:/program files (x86)/gnu tools arm embedded/4.9 2014q4/bin/../lib/gcc/arm-none-eabi/4.9.3/../../../../arm-none-eabi/lib/armv7e-m/softfp\libg.a(lib_a-svfprintf.o) (_localeconv_r)
c:/program files (x86)/gnu tools arm embedded/4.9 2014q4/bin/../lib/gcc/arm-none-eabi/4.9.3/../../../../arm-none-eabi/lib/armv7e-m/softfp\libg.a(lib_a-mallocr.o)
                              c:/program files (x86)/gnu tools arm embedded/4.9 2014q4/bin/../lib/gcc/arm-none-eabi/4.9.3/../../../../arm-none-eabi/lib/armv7e-m/softfp\libg.a(lib_a-svfprintf.o) (_malloc_r)
c:/program files (x86)/gnu tools arm embedded/4.9 2014q4/bin/../lib/gcc/arm-none-eabi/4.9.3/../../../../arm-none-eabi/lib/armv7e-m/softfp\libg.a(lib_a-memchr.o)
                              c:/program files (x86)/gnu tools arm embedded/4.9 2014q4/bin/../lib/gcc/arm-none-eabi/4.9.3/../../../../arm-none-eabi/lib/armv7e-m/softfp\libg.a(lib_a-svfprintf.o) (memchr)
c:/program files (x86)/gnu tools arm embedded/4.9 2014q4/bin/../lib/gcc/arm-none-eabi/4.9.3/../../../../arm-none-eabi/lib/armv7e-m/softfp\libg.a(lib_a-mlock.o)
                              c:/program files (x86)/gnu tools arm embedded/4.9 2014q4/bin/../lib/gcc/arm-none-eabi/4.9.3/../../../../arm-none-eabi/lib/armv7e-m/softfp\libg.a(lib_a-mallocr.o) (__malloc_lock)
c:/program files (x86)/gnu tools arm embedded/4.9 2014q4/bin/../lib/gcc/arm-none-eabi/4.9.3/../../../../arm-none-eabi/lib/armv7e-m/softfp\libg.a(lib_a-mprec.o)
                              c:/program files (x86)/gnu tools arm embedded/4.9 2014q4/bin/../lib/gcc/arm-none-eabi/4.9.3/../../../../arm-none-eabi/lib/armv7e-m/softfp\libg.a(lib_a-dtoa.o) (_Balloc)
c:/program files (x86)/gnu tools arm embedded/4.9 2014q4/bin/../lib/gcc/arm-none-eabi/4.9.3/../../../../arm-none-eabi/lib/armv7e-m/softfp\libg.a(lib_a-sbrkr.o)
                              c:/program files (x86)/gnu tools arm embedded/4.9 2014q4/bin/../lib/gcc/arm-none-eabi/4.9.3/../../../../arm-none-eabi/lib/armv7e-m/softfp\libg.a(lib_a-mallocr.o) (_sbrk_r)
c:/program files (x86)/gnu tools arm embedded/4.9 2014q4/bin/../lib/gcc/arm-none-eabi/4.9.3/../../../../arm-none-eabi/lib/armv7e-m/softfp\libg.a(lib_a-strcmp.o)
                              c:/program files (x86)/gnu tools arm embedded/4.9 2014q4/bin/../lib/gcc/arm-none-eabi/4.9.3/../../../../arm-none-eabi/lib/armv7e-m/softfp\libg.a(lib_a-locale.o) (strcmp)
c:/program files (x86)/gnu tools arm embedded/4.9 2014q4/bin/../lib/gcc/arm-none-eabi/4.9.3/../../../../arm-none-eabi/lib/armv7e-m/softfp\libg.a(lib_a-strlen.o)
                              c:/program files (x86)/gnu tools arm embedded/4.9 2014q4/bin/../lib/gcc/arm-none-eabi/4.9.3/../../../../arm-none-eabi/lib/armv7e-m/softfp\libg.a(lib_a-svfprintf.o) (strlen)
c:/program files (x86)/gnu tools arm embedded/4.9 2014q4/bin/../lib/gcc/arm-none-eabi/4.9.3/../../../../arm-none-eabi/lib/armv7e-m/softfp\libg.a(lib_a-svfiprintf.o)
                              c:/program files (x86)/gnu tools arm embedded/4.9 2014q4/bin/../lib/gcc/arm-none-eabi/4.9.3/../../../../arm-none-eabi/lib/armv7e-m/softfp\libg.a(lib_a-svfprintf.o) (__ssprint_r)
c:/program files (x86)/gnu tools arm embedded/4.9 2014q4/bin/../lib/gcc/arm-none-eabi/4.9.3/../../../../arm-none-eabi/lib/armv7e-m/softfp\libg.a(lib_a-callocr.o)
                              c:/program files (x86)/gnu tools arm embedded/4.9 2014q4/bin/../lib/gcc/arm-none-eabi/4.9.3/../../../../arm-none-eabi/lib/armv7e-m/softfp\libg.a(lib_a-mprec.o) (_calloc_r)
c:/program files (x86)/gnu tools arm embedded/4.9 2014q4/bin/../lib/gcc/arm-none-eabi/4.9.3/../../../../arm-none-eabi/lib/armv7e-m/softfp\libg.a(lib_a-freer.o)
                              c:/program files (x86)/gnu tools arm embedded/4.9 2014q4/bin/../lib/gcc/arm-none-eabi/4.9.3/../../../../arm-none-eabi/lib/armv7e-m/softfp\libg.a(lib_a-mallocr.o) (_free_r)
c:/program files (x86)/gnu tools arm embedded/4.9 2014q4/bin/../lib/gcc/arm-none-eabi/4.9.3/../../../../arm-none-eabi/lib/armv7e-m/softfp\libg.a(lib_a-memmove.o)
                              c:/program files (x86)/gnu tools arm embedded/4.9 2014q4/bin/../lib/gcc/arm-none-eabi/4.9.3/../../../../arm-none-eabi/lib/armv7e-m/softfp\libg.a(lib_a-svfiprintf.o) (memmove)
c:/program files (x86)/gnu tools arm embedded/4.9 2014q4/bin/../lib/gcc/arm-none-eabi/4.9.3/../../../../arm-none-eabi/lib/armv7e-m/softfp\libg.a(lib_a-reallocr.o)
                              c:/program files (x86)/gnu tools arm embedded/4.9 2014q4/bin/../lib/gcc/arm-none-eabi/4.9.3/../../../../arm-none-eabi/lib/armv7e-m/softfp\libg.a(lib_a-svfiprintf.o) (_realloc_r)
c:/program files (x86)/gnu tools arm embedded/4.9 2014q4/bin/../lib/gcc/arm-none-eabi/4.9.3/../../../../arm-none-eabi/lib/armv7e-m/softfp\libg.a(lib_a-reent.o)
                              c:/program files (x86)/gnu tools arm embedded/4.9 2014q4/bin/../lib/gcc/arm-none-eabi/4.9.3/../../../../arm-none-eabi/lib/armv7e-m/softfp\libg.a(lib_a-sbrkr.o) (errno)
c:/program files (x86)/gnu tools arm embedded/4.9 2014q4/bin/../lib/gcc/arm-none-eabi/4.9.3/armv7e-m/softfp\libgcc.a(_aeabi_uldivmod.o)
                              c:/program files (x86)/gnu tools arm embedded/4.9 2014q4/bin/../lib/gcc/arm-none-eabi/4.9.3/../../../../arm-none-eabi/lib/armv7e-m/softfp\libg.a(lib_a-svfprintf.o) (__aeabi_uldivmod)
c:/program files (x86)/gnu tools arm embedded/4.9 2014q4/bin/../lib/gcc/arm-none-eabi/4.9.3/armv7e-m/softfp\libgcc.a(bpabi.o)
                              c:/program files (x86)/gnu tools arm embedded/4.9 2014q4/bin/../lib/gcc/arm-none-eabi/4.9.3/armv7e-m/softfp\libgcc.a(_aeabi_uldivmod.o) (__gnu_uldivmod_helper)
c:/program files (x86)/gnu tools arm embedded/4.9 2014q4/bin/../lib/gcc/arm-none-eabi/4.9.3/armv7e-m/softfp\libgcc.a(_dvmd_tls.o)
                              c:/program files (x86)/gnu tools arm embedded/4.9 2014q4/bin/../lib/gcc/arm-none-eabi/4.9.3/armv7e-m/softfp\libgcc.a(_aeabi_uldivmod.o) (__aeabi_ldiv0)
c:/program files (x86)/gnu tools arm embedded/4.9 2014q4/bin/../lib/gcc/arm-none-eabi/4.9.3/armv7e-m/softfp\libgcc.a(_divdi3.o)
                              c:/program files (x86)/gnu tools arm embedded/4.9 2014q4/bin/../lib/gcc/arm-none-eabi/4.9.3/armv7e-m/softfp\libgcc.a(bpabi.o) (__divdi3)
c:/program files (x86)/gnu tools arm embedded/4.9 2014q4/bin/../lib/gcc/arm-none-eabi/4.9.3/armv7e-m/softfp\libgcc.a(_udivdi3.o)
                              c:/program files (x86)/gnu tools arm embedded/4.9 2014q4/bin/../lib/gcc/arm-none-eabi/4.9.3/armv7e-m/softfp\libgcc.a(bpabi.o) (__udivdi3)

Allocating common symbols
Common symbol       size              file

gps_tx              0x6               ..\obj\gps.o
MAG_SCALE           0xc               ..\obj\arduimu.o
gps_tx_buff         0x80              ..\obj\gps.o
MSC_BOT_Data        0x1000            ..\obj\usbd_msc_bot.o
PWM_out_channel     0x18              ..\obj\RC.o
SDIO_CmdInitStructure
                    0x14              ..\obj\stm32f4_discovery_sdio_sd.o
path                0x4               ..\obj\MS5611.o
_new_position       0x1               ..\obj\ublox.o
fs32                0x230             ..\obj\MS5611.o
xbee_buff           0x64              ..\obj\modem.o
LAT_home            0x4               ..\obj\gps.o
_disable_counter    0x1               ..\obj\ublox.o
SET_TEST_MODE       0x4               ..\obj\usbd_core.o
MAG_X               0x64              ..\obj\arduimu.o
MAG_OFFSET          0x6               ..\obj\arduimu.o
MSC_BOT_Status      0x1               ..\obj\usbd_msc_bot.o
_class              0x1               ..\obj\ublox.o
errno               0x4               c:/program files (x86)/gnu tools arm embedded/4.9 2014q4/bin/../lib/gcc/arm-none-eabi/4.9.3/../../../../arm-none-eabi/lib/armv7e-m/softfp\libg.a(lib_a-reent.o)
ADCConvertedValue   0x1a              ..\obj\ADC.o
DL_power_propulsion
                    0xc               ..\obj\packets.o
Heading_Y           0x4               ..\obj\arduimu.o
fno                 0x18              ..\obj\MS5611.o
DL_pressure_temperature
                    0x10              ..\obj\packets.o
ck_b                0x1               ..\obj\ublox.o
ublox               0x30              ..\obj\gps.o
motor_RPM           0x4               ..\obj\power_propulsion.o
AN                  0x20              ..\obj\arduimu.o
DL_attitude_raw     0x12              ..\obj\packets.o
receivedBufferIndex
                    0x1               ..\obj\externalPackets.o
mag_x               0x4               ..\obj\arduimu.o
X2                  0x4               ..\obj\gps.o
mag_imu             0x6               ..\obj\arduimu.o
xbee_rx_buff        0x3e8             ..\obj\modem.o
xQueueRegistry      0x40              ..\obj\queue.o
SCSI_Sense_Head     0x1               ..\obj\usbd_msc_scsi.o
Y                   0x4               ..\obj\gps.o
extBuffer           0x16              ..\obj\externalPackets.o
GPS                 0x48              ..\obj\ublox.o
MAG_Y               0x64              ..\obj\arduimu.o
MSC_BOT_cbw         0x20              ..\obj\usbd_msc_bot.o
tmpBuffer           0x14              ..\obj\MS5611.o
_buffer             0x50              ..\obj\ublox.o
DL_status           0x16              ..\obj\packets.o
serial_buffer       0x107             ..\obj\MAVLINK_STM32.o
ADC_3_ConvertedValue
                    0x10              ..\obj\ADC.o
Heading_X           0x4               ..\obj\arduimu.o
_payload_length     0x2               ..\obj\ublox.o
SDCardInfo          0x58              ..\obj\stm32f4_discovery_sdio_sd.o
SDIO_InitStructure  0x18              ..\obj\stm32f4_discovery_sdio_sd.o
SD_buffer2          0x1402            ..\obj\log.o
DL_GPS              0x28              ..\obj\packets.o
next_fix            0x1               ..\obj\ublox.o
DL_attitude         0x18              ..\obj\packets.o
mag_y               0x4               ..\obj\arduimu.o
SDIO_DataInitStructure
                    0x18              ..\obj\stm32f4_discovery_sdio_sd.o
SCSI_Sense          0x20              ..\obj\usbd_msc_scsi.o
DL_surface_deflection
                    0x8               ..\obj\packets.o
_step               0x1               ..\obj\ublox.o
_payload_counter    0x2               ..\obj\ublox.o
X1                  0x4               ..\obj\gps.o
_ck_a               0x1               ..\obj\ublox.o
mavlink_system      0x6               ..\obj\MS5611.o
MSC_BOT_csw         0x10              ..\obj\usbd_msc_bot.o
X3                  0x4               ..\obj\gps.o
CRC_Accum_Rx        0x2               ..\obj\modem.o
gps_data            0x50              ..\obj\gps.o
mag_z               0x4               ..\obj\arduimu.o
bw                  0x4               ..\obj\MS5611.o
CurrentTime         0x4               ..\obj\gps.o
_msg_id             0x1               ..\obj\ublox.o
HMC5883Lmode        0x1               ..\obj\HMC5883L.o
RC_in_sticks        0x10              ..\obj\RC.o
USB_OTG_dev         0x5f4             ..\obj\main.o
LONG_home           0x4               ..\obj\gps.o
ck_a                0x1               ..\obj\ublox.o
_new_speed          0x1               ..\obj\ublox.o
MAG_Z               0x64              ..\obj\arduimu.o
SD_buffer1          0x1402            ..\obj\log.o
cdev                0x4               ..\obj\usbd_msc_scsi.o
yaw                 0x4               ..\obj\arduimu.o
SCSI_Sense_Tail     0x1               ..\obj\usbd_msc_scsi.o
UART4TxBuffer       0x32              ..\obj\externalPackets.o
_ck_b               0x1               ..\obj\ublox.o
pitch               0x4               ..\obj\arduimu.o
MSC_BOT_State       0x1               ..\obj\usbd_msc_bot.o
roll                0x4               ..\obj\arduimu.o
res                 0x1               ..\obj\MS5611.o
gps_rx_buff         0x200             ..\obj\gps.o
NVIC_InitStructure  0x4               ..\obj\stm32f4_discovery.o
LOG_BUFF            0x4               ..\obj\log.o
UART4RxBuffer       0x32              ..\obj\externalPackets.o
MAG_MAX             0x6               ..\obj\arduimu.o
AN_OFFSET           0x20              ..\obj\arduimu.o
USBD_StrDesc        0x40              ..\obj\usbd_req.o
fil                 0x224             ..\obj\MS5611.o
gps_rx              0x6               ..\obj\gps.o
debug_tx_buff       0x1f4             ..\obj\debug.o
MSC_BOT_DataLen     0x2               ..\obj\usbd_msc_bot.o
_fix_count          0x1               ..\obj\ublox.o
MAG_MIN             0x6               ..\obj\arduimu.o
X                   0x4               ..\obj\gps.o
xbee_tx_buff        0x3e8             ..\obj\modem.o
battery_V           0x4               ..\obj\power_propulsion.o
RC_trim             0x10              ..\obj\RC.o

Discarded input sections

 .text          0x00000000        0x0 ..\obj\MS5611.o
 .text.mav_array_memcpy
                0x00000000       0x30 ..\obj\MS5611.o
 .text.MS561101BA_I2C_ByteWrite
                0x00000000       0x98 ..\obj\MS5611.o
 .text          0x00000000        0x0 ..\obj\loops.o
 .text.mav_array_memcpy
                0x00000000       0x30 ..\obj\loops.o
 .text          0x00000000        0x0 ..\obj\stm32f4xx_syscfg.o
 .data          0x00000000        0x0 ..\obj\stm32f4xx_syscfg.o
 .bss           0x00000000        0x0 ..\obj\stm32f4xx_syscfg.o
 .text.SYSCFG_DeInit
                0x00000000       0x1c ..\obj\stm32f4xx_syscfg.o
 .text.SYSCFG_MemoryRemapConfig
                0x00000000       0x20 ..\obj\stm32f4xx_syscfg.o
 .text.SYSCFG_ETH_MediaInterfaceConfig
                0x00000000       0x1c ..\obj\stm32f4xx_syscfg.o
 .text.SYSCFG_CompensationCellCmd
                0x00000000       0x20 ..\obj\stm32f4xx_syscfg.o
 .text.SYSCFG_GetCompensationCellStatus
                0x00000000       0x34 ..\obj\stm32f4xx_syscfg.o
 .text          0x00000000        0x0 ..\obj\usb_core.o
 .data          0x00000000        0x0 ..\obj\usb_core.o
 .bss           0x00000000        0x0 ..\obj\usb_core.o
 .text.USB_OTG_EnableCommonInt
                0x00000000       0x44 ..\obj\usb_core.o
 .text.USB_OTG_CoreReset
                0x00000000       0x8c ..\obj\usb_core.o
 .text.USB_OTG_SelectCore
                0x00000000      0x174 ..\obj\usb_core.o
 .text.USB_OTG_CoreInit
                0x00000000      0x134 ..\obj\usb_core.o
 .text.USB_OTG_EnableGlobalInt
                0x00000000       0x38 ..\obj\usb_core.o
 .text.USB_OTG_DisableGlobalInt
                0x00000000       0x38 ..\obj\usb_core.o
 .text.USB_OTG_FlushRxFifo
                0x00000000       0x60 ..\obj\usb_core.o
 .text.USB_OTG_SetCurrentMode
                0x00000000       0x60 ..\obj\usb_core.o
 .text.USB_OTG_IsHostMode
                0x00000000       0x24 ..\obj\usb_core.o
 .text.USB_OTG_ReadOtgItr
                0x00000000       0x1c ..\obj\usb_core.o
 .text.USB_OTG_InitDevSpeed
                0x00000000       0x38 ..\obj\usb_core.o
 .text.USB_OTG_CoreInitDev
                0x00000000      0x264 ..\obj\usb_core.o
 .text.USB_OTG_EnableDevInt
                0x00000000       0xa8 ..\obj\usb_core.o
 .text.USB_OTG_EPDeactivate
                0x00000000       0x8c ..\obj\usb_core.o
 .text.USB_OTG_ActiveRemoteWakeup
                0x00000000       0x8c ..\obj\usb_core.o
 .text.USB_OTG_UngateClock
                0x00000000       0x54 ..\obj\usb_core.o
 .text.USB_OTG_StopDevice
                0x00000000       0x80 ..\obj\usb_core.o
 .text.USB_OTG_GetEPStatus
                0x00000000       0xac ..\obj\usb_core.o
 .text.USB_OTG_SetEPStatus
                0x00000000      0x12c ..\obj\usb_core.o
 .text          0x00000000        0x0 ..\obj\DCM.o
 .data          0x00000000        0x0 ..\obj\DCM.o
 .text.mav_array_memcpy
                0x00000000       0x30 ..\obj\DCM.o
 .text          0x00000000        0x0 ..\obj\delay.o
 .data          0x00000000        0x0 ..\obj\delay.o
 .bss           0x00000000        0x0 ..\obj\delay.o
 .text          0x00000000        0x0 ..\obj\stm32f4xx_sdio.o
 .data          0x00000000        0x0 ..\obj\stm32f4xx_sdio.o
 .bss           0x00000000        0x0 ..\obj\stm32f4xx_sdio.o
 .text.SDIO_StructInit
                0x00000000       0x38 ..\obj\stm32f4xx_sdio.o
 .text.SDIO_CmdStructInit
                0x00000000       0x30 ..\obj\stm32f4xx_sdio.o
 .text.SDIO_DataStructInit
                0x00000000       0x38 ..\obj\stm32f4xx_sdio.o
 .text.SDIO_GetDataCounter
                0x00000000       0x18 ..\obj\stm32f4xx_sdio.o
 .text.SDIO_WriteData
                0x00000000       0x20 ..\obj\stm32f4xx_sdio.o
 .text.SDIO_GetFIFOCount
                0x00000000       0x18 ..\obj\stm32f4xx_sdio.o
 .text.SDIO_StartSDIOReadWait
                0x00000000       0x20 ..\obj\stm32f4xx_sdio.o
 .text.SDIO_StopSDIOReadWait
                0x00000000       0x20 ..\obj\stm32f4xx_sdio.o
 .text.SDIO_SetSDIOReadWaitMode
                0x00000000       0x1c ..\obj\stm32f4xx_sdio.o
 .text.SDIO_SetSDIOOperation
                0x00000000       0x20 ..\obj\stm32f4xx_sdio.o
 .text.SDIO_SendSDIOSuspendCmd
                0x00000000       0x20 ..\obj\stm32f4xx_sdio.o
 .text.SDIO_CommandCompletionCmd
                0x00000000       0x20 ..\obj\stm32f4xx_sdio.o
 .text.SDIO_CEATAITCmd
                0x00000000       0x2c ..\obj\stm32f4xx_sdio.o
 .text.SDIO_SendCEATACmd
                0x00000000       0x20 ..\obj\stm32f4xx_sdio.o
 .text          0x00000000        0x0 ..\obj\flash.o
 .data          0x00000000        0x0 ..\obj\flash.o
 .bss           0x00000000        0x0 ..\obj\flash.o
 .text.mav_array_memcpy
                0x00000000       0x30 ..\obj\flash.o
 .text          0x00000000        0x0 ..\obj\usbd_usr.o
 .data          0x00000000       0x1c ..\obj\usbd_usr.o
 .bss           0x00000000        0x0 ..\obj\usbd_usr.o
 .text.USBD_USR_Init
                0x00000000       0x20 ..\obj\usbd_usr.o
 .text.USBD_USR_DeviceReset
                0x00000000       0x28 ..\obj\usbd_usr.o
 .text.USBD_USR_DeviceConfigured
                0x00000000        0xc ..\obj\usbd_usr.o
 .text.USBD_USR_DeviceSuspended
                0x00000000        0xc ..\obj\usbd_usr.o
 .text.USBD_USR_DeviceResumed
                0x00000000        0xc ..\obj\usbd_usr.o
 .text.USBD_USR_DeviceConnected
                0x00000000        0xc ..\obj\usbd_usr.o
 .text.USBD_USR_DeviceDisconnected
                0x00000000        0xc ..\obj\usbd_usr.o
 .debug_info    0x00000000      0x20d ..\obj\usbd_usr.o
 .debug_abbrev  0x00000000      0x10d ..\obj\usbd_usr.o
 .debug_aranges
                0x00000000       0x50 ..\obj\usbd_usr.o
 .debug_ranges  0x00000000       0x40 ..\obj\usbd_usr.o
 .debug_line    0x00000000      0x2e1 ..\obj\usbd_usr.o
 .debug_str     0x00000000      0x3b8 ..\obj\usbd_usr.o
 .comment       0x00000000       0x71 ..\obj\usbd_usr.o
 .debug_frame   0x00000000       0xf4 ..\obj\usbd_usr.o
 .ARM.attributes
                0x00000000       0x37 ..\obj\usbd_usr.o
 .text          0x00000000        0x0 ..\obj\power_propulsion.o
 .data          0x00000000        0x0 ..\obj\power_propulsion.o
 .text.mav_array_memcpy
                0x00000000       0x30 ..\obj\power_propulsion.o
 .text          0x00000000        0x0 ..\obj\stm32f4xx_usart.o
 .data          0x00000000        0x0 ..\obj\stm32f4xx_usart.o
 .bss           0x00000000        0x0 ..\obj\stm32f4xx_usart.o
 .text.USART_DeInit
                0x00000000       0xd0 ..\obj\stm32f4xx_usart.o
 .text.USART_StructInit
                0x00000000       0x38 ..\obj\stm32f4xx_usart.o
 .text.USART_ClockInit
                0x00000000       0x54 ..\obj\stm32f4xx_usart.o
 .text.USART_ClockStructInit
                0x00000000       0x2c ..\obj\stm32f4xx_usart.o
 .text.USART_SetPrescaler
                0x00000000       0x38 ..\obj\stm32f4xx_usart.o
 .text.USART_OverSampling8Cmd
                0x00000000       0x44 ..\obj\stm32f4xx_usart.o
 .text.USART_OneBitMethodCmd
                0x00000000       0x40 ..\obj\stm32f4xx_usart.o
 .text.USART_SetAddress
                0x00000000       0x38 ..\obj\stm32f4xx_usart.o
 .text.USART_ReceiverWakeUpCmd
                0x00000000       0x40 ..\obj\stm32f4xx_usart.o
 .text.USART_WakeUpConfig
                0x00000000       0x38 ..\obj\stm32f4xx_usart.o
 .text.USART_LINBreakDetectLengthConfig
                0x00000000       0x38 ..\obj\stm32f4xx_usart.o
 .text.USART_LINCmd
                0x00000000       0x40 ..\obj\stm32f4xx_usart.o
 .text.USART_SendBreak
                0x00000000       0x24 ..\obj\stm32f4xx_usart.o
 .text.USART_HalfDuplexCmd
                0x00000000       0x40 ..\obj\stm32f4xx_usart.o
 .text.USART_SetGuardTime
                0x00000000       0x3c ..\obj\stm32f4xx_usart.o
 .text.USART_SmartCardCmd
                0x00000000       0x40 ..\obj\stm32f4xx_usart.o
 .text.USART_SmartCardNACKCmd
                0x00000000       0x40 ..\obj\stm32f4xx_usart.o
 .text.USART_IrDAConfig
                0x00000000       0x38 ..\obj\stm32f4xx_usart.o
 .text.USART_IrDACmd
                0x00000000       0x40 ..\obj\stm32f4xx_usart.o
 .text.USART_DMACmd
                0x00000000       0x48 ..\obj\stm32f4xx_usart.o
 .text.USART_GetFlagStatus
                0x00000000       0x38 ..\obj\stm32f4xx_usart.o
 .text.USART_ClearFlag
                0x00000000       0x20 ..\obj\stm32f4xx_usart.o
 .text.USART_ClearITPendingBit
                0x00000000       0x38 ..\obj\stm32f4xx_usart.o
 .text          0x00000000        0x0 ..\obj\HMC5883L.o
 .data          0x00000000        0x0 ..\obj\HMC5883L.o
 .bss           0x00000000        0x0 ..\obj\HMC5883L.o
 .text.HMC5883L_TestConnection
                0x00000000       0x3c ..\obj\HMC5883L.o
 .text.HMC5883L_GetSampleAveraging
                0x00000000       0x20 ..\obj\HMC5883L.o
 .text.HMC5883L_SetSampleAveraging
                0x00000000       0x20 ..\obj\HMC5883L.o
 .text.HMC5883L_GetDataRate
                0x00000000       0x20 ..\obj\HMC5883L.o
 .text.HMC5883L_SetDataRate
                0x00000000       0x20 ..\obj\HMC5883L.o
 .text.HMC5883L_GetMeasurementBias
                0x00000000       0x20 ..\obj\HMC5883L.o
 .text.HMC5883L_SetMeasurementBias
                0x00000000       0x20 ..\obj\HMC5883L.o
 .text.HMC5883L_GetGain
                0x00000000       0x20 ..\obj\HMC5883L.o
 .text.HMC5883L_SetGain
                0x00000000       0x28 ..\obj\HMC5883L.o
 .text.HMC5883L_GetMode
                0x00000000       0x20 ..\obj\HMC5883L.o
 .text.HMC5883L_SetMode
                0x00000000       0x30 ..\obj\HMC5883L.o
 .text.HMC5883L_GetHeading
                0x00000000       0x98 ..\obj\HMC5883L.o
 .text.HMC5883L_I2C_BufferRead_TO
                0x00000000      0x1d4 ..\obj\HMC5883L.o
 .text.HMC5883L_GetLockStatus
                0x00000000       0x28 ..\obj\HMC5883L.o
 .text.HMC5883L_GetReadyStatus
                0x00000000       0x28 ..\obj\HMC5883L.o
 .text.HMC5883L_WriteBits
                0x00000000       0xa0 ..\obj\HMC5883L.o
 .text.HMC5883L_WriteBit
                0x00000000       0x80 ..\obj\HMC5883L.o
 .text.HMC5883L_ReadBits
                0x00000000       0x74 ..\obj\HMC5883L.o
 .text.HMC5883L_ReadBit
                0x00000000       0x48 ..\obj\HMC5883L.o
 .text.HMC5883L_I2C_Init
                0x00000000       0x7c ..\obj\HMC5883L.o
 .text.HMC5883L_I2C_ByteWrite_TO
                0x00000000      0x130 ..\obj\HMC5883L.o
 .text.HMC5883L_I2C_BufferRead
                0x00000000      0x120 ..\obj\HMC5883L.o
 COMMON         0x00000000        0x1 ..\obj\HMC5883L.o
 .text          0x00000000        0x0 ..\obj\stm32f4_discovery_sdio_sd.o
 .data          0x00000000        0x0 ..\obj\stm32f4_discovery_sdio_sd.o
 .text.SD_DeInit
                0x00000000        0xc ..\obj\stm32f4_discovery_sdio_sd.o
 .text.SD_PowerOFF
                0x00000000       0x1c ..\obj\stm32f4_discovery_sdio_sd.o
 .text.SD_GetCardStatus
                0x00000000      0x134 ..\obj\stm32f4_discovery_sdio_sd.o
 .text.SD_ReadBlock
                0x00000000      0x120 ..\obj\stm32f4_discovery_sdio_sd.o
 .text.SD_ReadMultiBlocks
                0x00000000      0x12c ..\obj\stm32f4_discovery_sdio_sd.o
 .text.SD_WriteBlock
                0x00000000      0x120 ..\obj\stm32f4_discovery_sdio_sd.o
 .text.SD_WriteMultiBlocks
                0x00000000      0x1a8 ..\obj\stm32f4_discovery_sdio_sd.o
 .text.SD_GetTransferState
                0x00000000       0x24 ..\obj\stm32f4_discovery_sdio_sd.o
 .text.SD_Erase
                0x00000000      0x1a8 ..\obj\stm32f4_discovery_sdio_sd.o
 .text.SD_SendSDStatus
                0x00000000      0x20c ..\obj\stm32f4_discovery_sdio_sd.o
 .text.SD_ProcessDMAIRQ
                0x00000000       0x30 ..\obj\stm32f4_discovery_sdio_sd.o
 .text.IsCardProgramming
                0x00000000      0x1ec ..\obj\stm32f4_discovery_sdio_sd.o
 .text.convert_from_bytes_to_power_of_two
                0x00000000       0x30 ..\obj\stm32f4_discovery_sdio_sd.o
 .text          0x00000000        0x0 ..\obj\packets.o
 .data          0x00000000        0x0 ..\obj\packets.o
 .text.mav_array_memcpy
                0x00000000       0x30 ..\obj\packets.o
 .text          0x00000000        0x0 ..\obj\RC.o
 .data          0x00000000        0x0 ..\obj\RC.o
 .bss           0x00000000        0x0 ..\obj\RC.o
 .text.mav_array_memcpy
                0x00000000       0x30 ..\obj\RC.o
 .text.get_trim_val
                0x00000000       0x24 ..\obj\RC.o
 .text          0x00000000        0x0 ..\obj\diskio.o
 .data          0x00000000        0x0 ..\obj\diskio.o
 .bss           0x00000000        0x0 ..\obj\diskio.o
 .text          0x00000000        0x0 ..\obj\startup_stm32f4xx.o
 .data          0x00000000        0x0 ..\obj\startup_stm32f4xx.o
 .bss           0x00000000        0x0 ..\obj\startup_stm32f4xx.o
 .text          0x00000000        0x0 ..\obj\stm32f4_discovery.o
 .data          0x00000000       0x14 ..\obj\stm32f4_discovery.o
 .bss           0x00000000        0x0 ..\obj\stm32f4_discovery.o
 .rodata        0x00000000       0x30 ..\obj\stm32f4_discovery.o
 .text.STM_EVAL_LEDInit
                0x00000000       0x5c ..\obj\stm32f4_discovery.o
 .text.STM_EVAL_LEDOn
                0x00000000       0x30 ..\obj\stm32f4_discovery.o
 .text.STM_EVAL_LEDOff
                0x00000000       0x30 ..\obj\stm32f4_discovery.o
 .text.STM_EVAL_LEDToggle
                0x00000000       0x3c ..\obj\stm32f4_discovery.o
 .text.STM_EVAL_PBInit
                0x00000000       0x94 ..\obj\stm32f4_discovery.o
 .text.STM_EVAL_PBGetState
                0x00000000       0x2c ..\obj\stm32f4_discovery.o
 .text.SD_LowLevel_DeInit
                0x00000000       0xa0 ..\obj\stm32f4_discovery.o
 COMMON         0x00000000        0x4 ..\obj\stm32f4_discovery.o
 .text          0x00000000        0x0 ..\obj\MAVLINK_STM32.o
 .data          0x00000000        0x0 ..\obj\MAVLINK_STM32.o
 .text.mav_array_memcpy
                0x00000000       0x30 ..\obj\MAVLINK_STM32.o
 .text          0x00000000        0x0 ..\obj\stm32f4xx_iwdg.o
 .data          0x00000000        0x0 ..\obj\stm32f4xx_iwdg.o
 .bss           0x00000000        0x0 ..\obj\stm32f4xx_iwdg.o
 .text.IWDG_GetFlagStatus
                0x00000000       0x38 ..\obj\stm32f4xx_iwdg.o
 .text          0x00000000        0x0 ..\obj\usbd_msc_core.o
 .data          0x00000000       0x4c ..\obj\usbd_msc_core.o
 .bss           0x00000000        0x2 ..\obj\usbd_msc_core.o
 .text.USBD_MSC_Init
                0x00000000       0x40 ..\obj\usbd_msc_core.o
 .text.USBD_MSC_DeInit
                0x00000000       0x2c ..\obj\usbd_msc_core.o
 .text.USBD_MSC_Setup
                0x00000000      0x164 ..\obj\usbd_msc_core.o
 .text.USBD_MSC_DataIn
                0x00000000       0x20 ..\obj\usbd_msc_core.o
 .text.USBD_MSC_DataOut
                0x00000000       0x20 ..\obj\usbd_msc_core.o
 .text.USBD_MSC_GetCfgDesc
                0x00000000       0x24 ..\obj\usbd_msc_core.o
 .debug_info    0x00000000      0x512 ..\obj\usbd_msc_core.o
 .debug_abbrev  0x00000000      0x154 ..\obj\usbd_msc_core.o
 .debug_aranges
                0x00000000       0x48 ..\obj\usbd_msc_core.o
 .debug_ranges  0x00000000       0x38 ..\obj\usbd_msc_core.o
 .debug_line    0x00000000      0x332 ..\obj\usbd_msc_core.o
 .debug_str     0x00000000      0x444 ..\obj\usbd_msc_core.o
 .comment       0x00000000       0x71 ..\obj\usbd_msc_core.o
 .debug_frame   0x00000000       0xec ..\obj\usbd_msc_core.o
 .ARM.attributes
                0x00000000       0x37 ..\obj\usbd_msc_core.o
 .text          0x00000000        0x0 ..\obj\usbd_core.o
 .bss           0x00000000        0x0 ..\obj\usbd_core.o
 .text.USBD_Init
                0x00000000       0x54 ..\obj\usbd_core.o
 .text.USBD_DeInit
                0x00000000       0x18 ..\obj\usbd_core.o
 .text          0x00000000        0x0 ..\obj\main.o
 .data          0x00000000        0x0 ..\obj\main.o
 .text.mav_array_memcpy
                0x00000000       0x30 ..\obj\main.o
 .text          0x00000000        0x0 ..\obj\ublox.o
 .bss           0x00000000        0x5 ..\obj\ublox.o
 .text.mav_array_memcpy
                0x00000000       0x30 ..\obj\ublox.o
 .text.UBLOX_detect
                0x00000000      0x1b8 ..\obj\ublox.o
 .text          0x00000000        0x0 ..\obj\stm32f4xx_rcc.o
 .bss           0x00000000        0x0 ..\obj\stm32f4xx_rcc.o
 .text.RCC_DeInit
                0x00000000       0x50 ..\obj\stm32f4xx_rcc.o
 .text.RCC_HSEConfig
                0x00000000       0x24 ..\obj\stm32f4xx_rcc.o
 .text.RCC_WaitForHSEStartUp
                0x00000000       0x50 ..\obj\stm32f4xx_rcc.o
 .text.RCC_AdjustHSICalibrationValue
                0x00000000       0x3c ..\obj\stm32f4xx_rcc.o
 .text.RCC_HSICmd
                0x00000000       0x20 ..\obj\stm32f4xx_rcc.o
 .text.RCC_LSEConfig
                0x00000000       0x40 ..\obj\stm32f4xx_rcc.o
 .text.RCC_PLLConfig
                0x00000000       0x3c ..\obj\stm32f4xx_rcc.o
 .text.RCC_PLLCmd
                0x00000000       0x20 ..\obj\stm32f4xx_rcc.o
 .text.RCC_PLLI2SConfig
                0x00000000       0x28 ..\obj\stm32f4xx_rcc.o
 .text.RCC_PLLI2SCmd
                0x00000000       0x20 ..\obj\stm32f4xx_rcc.o
 .text.RCC_ClockSecuritySystemCmd
                0x00000000       0x20 ..\obj\stm32f4xx_rcc.o
 .text.RCC_MCO1Config
                0x00000000       0x3c ..\obj\stm32f4xx_rcc.o
 .text.RCC_MCO2Config
                0x00000000       0x3c ..\obj\stm32f4xx_rcc.o
 .text.RCC_SYSCLKConfig
                0x00000000       0x38 ..\obj\stm32f4xx_rcc.o
 .text.RCC_GetSYSCLKSource
                0x00000000       0x20 ..\obj\stm32f4xx_rcc.o
 .text.RCC_HCLKConfig
                0x00000000       0x38 ..\obj\stm32f4xx_rcc.o
 .text.RCC_PCLK1Config
                0x00000000       0x38 ..\obj\stm32f4xx_rcc.o
 .text.RCC_PCLK2Config
                0x00000000       0x38 ..\obj\stm32f4xx_rcc.o
 .text.RCC_RTCCLKConfig
                0x00000000       0x5c ..\obj\stm32f4xx_rcc.o
 .text.RCC_RTCCLKCmd
                0x00000000       0x20 ..\obj\stm32f4xx_rcc.o
 .text.RCC_BackupResetCmd
                0x00000000       0x20 ..\obj\stm32f4xx_rcc.o
 .text.RCC_I2SCLKConfig
                0x00000000       0x1c ..\obj\stm32f4xx_rcc.o
 .text.RCC_AHB2PeriphClockCmd
                0x00000000       0x3c ..\obj\stm32f4xx_rcc.o
 .text.RCC_AHB3PeriphClockCmd
                0x00000000       0x3c ..\obj\stm32f4xx_rcc.o
 .text.RCC_AHB1PeriphResetCmd
                0x00000000       0x3c ..\obj\stm32f4xx_rcc.o
 .text.RCC_AHB2PeriphResetCmd
                0x00000000       0x3c ..\obj\stm32f4xx_rcc.o
 .text.RCC_AHB3PeriphResetCmd
                0x00000000       0x3c ..\obj\stm32f4xx_rcc.o
 .text.RCC_AHB1PeriphClockLPModeCmd
                0x00000000       0x3c ..\obj\stm32f4xx_rcc.o
 .text.RCC_AHB2PeriphClockLPModeCmd
                0x00000000       0x3c ..\obj\stm32f4xx_rcc.o
 .text.RCC_AHB3PeriphClockLPModeCmd
                0x00000000       0x3c ..\obj\stm32f4xx_rcc.o
 .text.RCC_APB1PeriphClockLPModeCmd
                0x00000000       0x3c ..\obj\stm32f4xx_rcc.o
 .text.RCC_APB2PeriphClockLPModeCmd
                0x00000000       0x3c ..\obj\stm32f4xx_rcc.o
 .text.RCC_ITConfig
                0x00000000       0x4c ..\obj\stm32f4xx_rcc.o
 .text.RCC_GetITStatus
                0x00000000       0x38 ..\obj\stm32f4xx_rcc.o
 .text.RCC_ClearITPendingBit
                0x00000000       0x20 ..\obj\stm32f4xx_rcc.o
 .text          0x00000000        0x0 ..\obj\stm32f4xx_it.o
 .data          0x00000000        0x0 ..\obj\stm32f4xx_it.o
 .bss           0x00000000        0x0 ..\obj\stm32f4xx_it.o
 .text          0x00000000        0x0 ..\obj\arduimu.o
 .text.mav_array_memcpy
                0x00000000       0x30 ..\obj\arduimu.o
 .rodata        0x00000000       0x20 ..\obj\arduimu.o
 .text          0x00000000        0x0 ..\obj\timers.o
 .data          0x00000000        0x0 ..\obj\timers.o
 .text.xTimerCreate
                0x00000000       0x68 ..\obj\timers.o
 .text.xTimerIsTimerActive
                0x00000000       0x30 ..\obj\timers.o
 .text.pvTimerGetTimerID
                0x00000000       0x1c ..\obj\timers.o
 .text          0x00000000        0x0 ..\obj\log.o
 .text.mav_array_memcpy
                0x00000000       0x30 ..\obj\log.o
 .text          0x00000000        0x0 ..\obj\ADC.o
 .data          0x00000000        0x0 ..\obj\ADC.o
 .bss           0x00000000        0x0 ..\obj\ADC.o
 .text          0x00000000        0x0 ..\obj\stm32f4xx_adc.o
 .data          0x00000000        0x0 ..\obj\stm32f4xx_adc.o
 .bss           0x00000000        0x0 ..\obj\stm32f4xx_adc.o
 .text.ADC_DeInit
                0x00000000       0x1c ..\obj\stm32f4xx_adc.o
 .text.ADC_StructInit
                0x00000000       0x3c ..\obj\stm32f4xx_adc.o
 .text.ADC_CommonStructInit
                0x00000000       0x2c ..\obj\stm32f4xx_adc.o
 .text.ADC_AnalogWatchdogCmd
                0x00000000       0x38 ..\obj\stm32f4xx_adc.o
 .text.ADC_AnalogWatchdogThresholdsConfig
                0x00000000       0x28 ..\obj\stm32f4xx_adc.o
 .text.ADC_AnalogWatchdogSingleChannelConfig
                0x00000000       0x38 ..\obj\stm32f4xx_adc.o
 .text.ADC_TempSensorVrefintCmd
                0x00000000       0x38 ..\obj\stm32f4xx_adc.o
 .text.ADC_VBATCmd
                0x00000000       0x38 ..\obj\stm32f4xx_adc.o
 .text.ADC_GetSoftwareStartConvStatus
                0x00000000       0x30 ..\obj\stm32f4xx_adc.o
 .text.ADC_EOCOnEachRegularChannelCmd
                0x00000000       0x38 ..\obj\stm32f4xx_adc.o
 .text.ADC_ContinuousModeCmd
                0x00000000       0x38 ..\obj\stm32f4xx_adc.o
 .text.ADC_DiscModeChannelCountConfig
                0x00000000       0x44 ..\obj\stm32f4xx_adc.o
 .text.ADC_DiscModeCmd
                0x00000000       0x38 ..\obj\stm32f4xx_adc.o
 .text.ADC_GetConversionValue
                0x00000000       0x1c ..\obj\stm32f4xx_adc.o
 .text.ADC_GetMultiModeConversionValue
                0x00000000       0x18 ..\obj\stm32f4xx_adc.o
 .text.ADC_MultiModeDMARequestAfterLastTransferCmd
                0x00000000       0x38 ..\obj\stm32f4xx_adc.o
 .text.ADC_InjectedChannelConfig
                0x00000000      0x120 ..\obj\stm32f4xx_adc.o
 .text.ADC_InjectedSequencerLengthConfig
                0x00000000       0x44 ..\obj\stm32f4xx_adc.o
 .text.ADC_SetInjectedOffset
                0x00000000       0x34 ..\obj\stm32f4xx_adc.o
 .text.ADC_ExternalTrigInjectedConvConfig
                0x00000000       0x34 ..\obj\stm32f4xx_adc.o
 .text.ADC_ExternalTrigInjectedConvEdgeConfig
                0x00000000       0x34 ..\obj\stm32f4xx_adc.o
 .text.ADC_SoftwareStartInjectedConv
                0x00000000       0x20 ..\obj\stm32f4xx_adc.o
 .text.ADC_GetSoftwareStartInjectedConvCmdStatus
                0x00000000       0x30 ..\obj\stm32f4xx_adc.o
 .text.ADC_AutoInjectedConvCmd
                0x00000000       0x38 ..\obj\stm32f4xx_adc.o
 .text.ADC_InjectedDiscModeCmd
                0x00000000       0x38 ..\obj\stm32f4xx_adc.o
 .text.ADC_GetInjectedConversionValue
                0x00000000       0x30 ..\obj\stm32f4xx_adc.o
 .text.ADC_ITConfig
                0x00000000       0x50 ..\obj\stm32f4xx_adc.o
 .text.ADC_GetFlagStatus
                0x00000000       0x34 ..\obj\stm32f4xx_adc.o
 .text.ADC_ClearFlag
                0x00000000       0x20 ..\obj\stm32f4xx_adc.o
 .text.ADC_GetITStatus
                0x00000000       0x5c ..\obj\stm32f4xx_adc.o
 .text.ADC_ClearITPendingBit
                0x00000000       0x2c ..\obj\stm32f4xx_adc.o
 .text          0x00000000        0x0 ..\obj\RPM.o
 .data          0x00000000        0x0 ..\obj\RPM.o
 .text          0x00000000        0x0 ..\obj\usbd_storage_msd.o
 .data          0x00000000       0x24 ..\obj\usbd_storage_msd.o
 .bss           0x00000000        0x8 ..\obj\usbd_storage_msd.o
 .rodata        0x00000000       0x24 ..\obj\usbd_storage_msd.o
 .text.STORAGE_Init
                0x00000000       0x40 ..\obj\usbd_storage_msd.o
 .text.STORAGE_GetCapacity
                0x00000000       0x48 ..\obj\usbd_storage_msd.o
 .text.STORAGE_IsReady
                0x00000000       0x44 ..\obj\usbd_storage_msd.o
 .text.STORAGE_IsWriteProtected
                0x00000000       0x1c ..\obj\usbd_storage_msd.o
 .text.STORAGE_Read
                0x00000000       0x44 ..\obj\usbd_storage_msd.o
 .text.STORAGE_Write
                0x00000000       0x44 ..\obj\usbd_storage_msd.o
 .text.STORAGE_GetMaxLun
                0x00000000       0x14 ..\obj\usbd_storage_msd.o
 .debug_info    0x00000000      0x97d ..\obj\usbd_storage_msd.o
 .debug_abbrev  0x00000000      0x1de ..\obj\usbd_storage_msd.o
 .debug_aranges
                0x00000000       0x50 ..\obj\usbd_storage_msd.o
 .debug_ranges  0x00000000       0x40 ..\obj\usbd_storage_msd.o
 .debug_line    0x00000000      0x39a ..\obj\usbd_storage_msd.o
 .debug_str     0x00000000      0xbea ..\obj\usbd_storage_msd.o
 .comment       0x00000000       0x71 ..\obj\usbd_storage_msd.o
 .debug_frame   0x00000000      0x110 ..\obj\usbd_storage_msd.o
 .ARM.attributes
                0x00000000       0x37 ..\obj\usbd_storage_msd.o
 .text          0x00000000        0x0 ..\obj\tasks.o
 .text.vTaskSuspend
                0x00000000       0x90 ..\obj\tasks.o
 .text.xTaskIsTaskSuspended
                0x00000000       0x64 ..\obj\tasks.o
 .text.vTaskResume
                0x00000000       0x9c ..\obj\tasks.o
 .text.xTaskResumeFromISR
                0x00000000       0xbc ..\obj\tasks.o
 .text.vTaskEndScheduler
                0x00000000       0x18 ..\obj\tasks.o
 .text.xTaskGetTickCountFromISR
                0x00000000       0x2c ..\obj\tasks.o
 .text.uxTaskGetNumberOfTasks
                0x00000000       0x18 ..\obj\tasks.o
 .text          0x00000000        0x0 ..\obj\usbd_msc_scsi.o
 .data          0x00000000        0x0 ..\obj\usbd_msc_scsi.o
 .bss           0x00000000       0x10 ..\obj\usbd_msc_scsi.o
 .text.SCSI_ProcessCmd
                0x00000000      0x254 ..\obj\usbd_msc_scsi.o
 .text.SCSI_TestUnitReady
                0x00000000       0x68 ..\obj\usbd_msc_scsi.o
 .text.SCSI_Inquiry
                0x00000000       0x9c ..\obj\usbd_msc_scsi.o
 .text.SCSI_ReadCapacity10
                0x00000000       0xc0 ..\obj\usbd_msc_scsi.o
 .text.SCSI_ReadFormatCapacity
                0x00000000       0xc4 ..\obj\usbd_msc_scsi.o
 .text.SCSI_ModeSense6
                0x00000000       0x4c ..\obj\usbd_msc_scsi.o
 .text.SCSI_ModeSense10
                0x00000000       0x4c ..\obj\usbd_msc_scsi.o
 .text.SCSI_RequestSense
                0x00000000       0xc8 ..\obj\usbd_msc_scsi.o
 .text.SCSI_SenseCode
                0x00000000       0x60 ..\obj\usbd_msc_scsi.o
 .text.SCSI_StartStopUnit
                0x00000000       0x28 ..\obj\usbd_msc_scsi.o
 .text.SCSI_Read10
                0x00000000      0x120 ..\obj\usbd_msc_scsi.o
 .text.SCSI_Write10
                0x00000000      0x164 ..\obj\usbd_msc_scsi.o
 .text.SCSI_Verify10
                0x00000000       0x68 ..\obj\usbd_msc_scsi.o
 .text.SCSI_CheckAddressRange
                0x00000000       0x40 ..\obj\usbd_msc_scsi.o
 .text.SCSI_ProcessRead
                0x00000000       0xc4 ..\obj\usbd_msc_scsi.o
 .text.SCSI_ProcessWrite
                0x00000000       0xd8 ..\obj\usbd_msc_scsi.o
 .debug_info    0x00000000     0x124c ..\obj\usbd_msc_scsi.o
 .debug_abbrev  0x00000000      0x2a8 ..\obj\usbd_msc_scsi.o
 .debug_aranges
                0x00000000       0x98 ..\obj\usbd_msc_scsi.o
 .debug_ranges  0x00000000       0x88 ..\obj\usbd_msc_scsi.o
 .debug_line    0x00000000      0x4a4 ..\obj\usbd_msc_scsi.o
 .debug_str     0x00000000      0xcfe ..\obj\usbd_msc_scsi.o
 .comment       0x00000000       0x71 ..\obj\usbd_msc_scsi.o
 .debug_frame   0x00000000      0x274 ..\obj\usbd_msc_scsi.o
 .ARM.attributes
                0x00000000       0x37 ..\obj\usbd_msc_scsi.o
 COMMON         0x00000000       0x29 ..\obj\usbd_msc_scsi.o
 .text          0x00000000        0x0 ..\obj\usbd_desc.o
 .data          0x00000000       0x40 ..\obj\usbd_desc.o
 .bss           0x00000000        0x0 ..\obj\usbd_desc.o
 .text.USBD_USR_DeviceDescriptor
                0x00000000       0x24 ..\obj\usbd_desc.o
 .text.USBD_USR_LangIDStrDescriptor
                0x00000000       0x24 ..\obj\usbd_desc.o
 .rodata        0x00000000       0x80 ..\obj\usbd_desc.o
 .text.USBD_USR_ProductStrDescriptor
                0x00000000       0x40 ..\obj\usbd_desc.o
 .text.USBD_USR_ManufacturerStrDescriptor
                0x00000000       0x28 ..\obj\usbd_desc.o
 .text.USBD_USR_SerialStrDescriptor
                0x00000000       0x40 ..\obj\usbd_desc.o
 .text.USBD_USR_ConfigStrDescriptor
                0x00000000       0x3c ..\obj\usbd_desc.o
 .text.USBD_USR_InterfaceStrDescriptor
                0x00000000       0x3c ..\obj\usbd_desc.o
 .debug_info    0x00000000      0x379 ..\obj\usbd_desc.o
 .debug_abbrev  0x00000000      0x12c ..\obj\usbd_desc.o
 .debug_aranges
                0x00000000       0x50 ..\obj\usbd_desc.o
 .debug_ranges  0x00000000       0x40 ..\obj\usbd_desc.o
 .debug_line    0x00000000      0x2e4 ..\obj\usbd_desc.o
 .debug_str     0x00000000      0x401 ..\obj\usbd_desc.o
 .comment       0x00000000       0x71 ..\obj\usbd_desc.o
 .debug_frame   0x00000000      0x114 ..\obj\usbd_desc.o
 .ARM.attributes
                0x00000000       0x37 ..\obj\usbd_desc.o
 .text          0x00000000        0x0 ..\obj\modem.o
 .data          0x00000000        0x0 ..\obj\modem.o
 .text.mav_array_memcpy
                0x00000000       0x30 ..\obj\modem.o
 .text          0x00000000        0x0 ..\obj\externalPackets.o
 .data          0x00000000        0x0 ..\obj\externalPackets.o
 .text.UART4Init
                0x00000000       0xcc ..\obj\externalPackets.o
 .text          0x00000000        0x0 ..\obj\PWM_output.o
 .data          0x00000000        0x0 ..\obj\PWM_output.o
 .bss           0x00000000        0x0 ..\obj\PWM_output.o
 .text.mav_array_memcpy
                0x00000000       0x30 ..\obj\PWM_output.o
 .text          0x00000000        0x0 ..\obj\stm32f4xx_gpio.o
 .data          0x00000000        0x0 ..\obj\stm32f4xx_gpio.o
 .bss           0x00000000        0x0 ..\obj\stm32f4xx_gpio.o
 .text.GPIO_DeInit
                0x00000000      0x120 ..\obj\stm32f4xx_gpio.o
 .text.GPIO_StructInit
                0x00000000       0x34 ..\obj\stm32f4xx_gpio.o
 .text.GPIO_PinLockConfig
                0x00000000       0x44 ..\obj\stm32f4xx_gpio.o
 .text.GPIO_ReadInputDataBit
                0x00000000       0x34 ..\obj\stm32f4xx_gpio.o
 .text.GPIO_ReadInputData
                0x00000000       0x1c ..\obj\stm32f4xx_gpio.o
 .text.GPIO_ReadOutputDataBit
                0x00000000       0x34 ..\obj\stm32f4xx_gpio.o
 .text.GPIO_ReadOutputData
                0x00000000       0x1c ..\obj\stm32f4xx_gpio.o
 .text.GPIO_SetBits
                0x00000000       0x1c ..\obj\stm32f4xx_gpio.o
 .text.GPIO_ResetBits
                0x00000000       0x1c ..\obj\stm32f4xx_gpio.o
 .text.GPIO_Write
                0x00000000       0x1c ..\obj\stm32f4xx_gpio.o
 .text.GPIO_ToggleBits
                0x00000000       0x24 ..\obj\stm32f4xx_gpio.o
 .text          0x00000000        0x0 ..\obj\stm32f4xx_flash.o
 .data          0x00000000        0x0 ..\obj\stm32f4xx_flash.o
 .bss           0x00000000        0x0 ..\obj\stm32f4xx_flash.o
 .text.FLASH_SetLatency
                0x00000000       0x20 ..\obj\stm32f4xx_flash.o
 .text.FLASH_PrefetchBufferCmd
                0x00000000       0x38 ..\obj\stm32f4xx_flash.o
 .text.FLASH_InstructionCacheCmd
                0x00000000       0x38 ..\obj\stm32f4xx_flash.o
 .text.FLASH_DataCacheCmd
                0x00000000       0x38 ..\obj\stm32f4xx_flash.o
 .text.FLASH_InstructionCacheReset
                0x00000000       0x1c ..\obj\stm32f4xx_flash.o
 .text.FLASH_DataCacheReset
                0x00000000       0x1c ..\obj\stm32f4xx_flash.o
 .text.FLASH_EraseAllSectors
                0x00000000       0xa0 ..\obj\stm32f4xx_flash.o
 .text.FLASH_ProgramDoubleWord
                0x00000000       0x70 ..\obj\stm32f4xx_flash.o
 .text.FLASH_ProgramWord
                0x00000000       0x68 ..\obj\stm32f4xx_flash.o
 .text.FLASH_OB_Unlock
                0x00000000       0x30 ..\obj\stm32f4xx_flash.o
 .text.FLASH_OB_Lock
                0x00000000       0x1c ..\obj\stm32f4xx_flash.o
 .text.FLASH_OB_WRPConfig
                0x00000000       0x58 ..\obj\stm32f4xx_flash.o
 .text.FLASH_OB_RDPConfig
                0x00000000       0x2c ..\obj\stm32f4xx_flash.o
 .text.FLASH_OB_UserConfig
                0x00000000       0x58 ..\obj\stm32f4xx_flash.o
 .text.FLASH_OB_BORConfig
                0x00000000       0x38 ..\obj\stm32f4xx_flash.o
 .text.FLASH_OB_Launch
                0x00000000       0x30 ..\obj\stm32f4xx_flash.o
 .text.FLASH_OB_GetUser
                0x00000000       0x1c ..\obj\stm32f4xx_flash.o
 .text.FLASH_OB_GetWRP
                0x00000000       0x18 ..\obj\stm32f4xx_flash.o
 .text.FLASH_OB_GetRDP
                0x00000000       0x30 ..\obj\stm32f4xx_flash.o
 .text.FLASH_OB_GetBOR
                0x00000000       0x20 ..\obj\stm32f4xx_flash.o
 .text.FLASH_ITConfig
                0x00000000       0x3c ..\obj\stm32f4xx_flash.o
 .text.FLASH_GetFlagStatus
                0x00000000       0x34 ..\obj\stm32f4xx_flash.o
 .text          0x00000000        0x0 ..\obj\list.o
 .data          0x00000000        0x0 ..\obj\list.o
 .bss           0x00000000        0x0 ..\obj\list.o
 .text          0x00000000        0x0 ..\obj\system_stm32f4xx.o
 .bss           0x00000000        0x0 ..\obj\system_stm32f4xx.o
 .text.SystemCoreClockUpdate
                0x00000000       0xf8 ..\obj\system_stm32f4xx.o
 .text          0x00000000        0x0 ..\obj\syscalls.o
 .data          0x00000000        0x0 ..\obj\syscalls.o
 .text.link     0x00000000       0x1c ..\obj\syscalls.o
 .text._close   0x00000000       0x18 ..\obj\syscalls.o
 .text._fstat   0x00000000       0x20 ..\obj\syscalls.o
 .text._isatty  0x00000000       0x18 ..\obj\syscalls.o
 .text._lseek   0x00000000       0x1c ..\obj\syscalls.o
 .text._read    0x00000000       0x1c ..\obj\syscalls.o
 .text._write   0x00000000       0x1c ..\obj\syscalls.o
 .text.abort    0x00000000        0x8 ..\obj\syscalls.o
 .text          0x00000000        0x0 ..\obj\stm32f4xx_dma.o
 .data          0x00000000        0x0 ..\obj\stm32f4xx_dma.o
 .bss           0x00000000        0x0 ..\obj\stm32f4xx_dma.o
 .text.DMA_StructInit
                0x00000000       0x6c ..\obj\stm32f4xx_dma.o
 .text.DMA_PeriphIncOffsetSizeConfig
                0x00000000       0x34 ..\obj\stm32f4xx_dma.o
 .text.DMA_SetCurrDataCounter
                0x00000000       0x1c ..\obj\stm32f4xx_dma.o
 .text.DMA_GetCurrDataCounter
                0x00000000       0x1c ..\obj\stm32f4xx_dma.o
 .text.DMA_DoubleBufferModeConfig
                0x00000000       0x3c ..\obj\stm32f4xx_dma.o
 .text.DMA_DoubleBufferModeCmd
                0x00000000       0x38 ..\obj\stm32f4xx_dma.o
 .text.DMA_MemoryTargetConfig
                0x00000000       0x2c ..\obj\stm32f4xx_dma.o
 .text.DMA_GetCurrentMemoryTarget
                0x00000000       0x30 ..\obj\stm32f4xx_dma.o
 .text.DMA_GetCmdStatus
                0x00000000       0x30 ..\obj\stm32f4xx_dma.o
 .text.DMA_GetFIFOStatus
                0x00000000       0x24 ..\obj\stm32f4xx_dma.o
 .text.DMA_GetFlagStatus
                0x00000000       0x78 ..\obj\stm32f4xx_dma.o
 .text.DMA_GetITStatus
                0x00000000       0xb0 ..\obj\stm32f4xx_dma.o
 .text.DMA_ClearITPendingBit
                0x00000000       0x5c ..\obj\stm32f4xx_dma.o
 .text          0x00000000        0x0 ..\obj\gps.o
 .text.mav_array_memcpy
                0x00000000       0x30 ..\obj\gps.o
 .text          0x00000000        0x0 ..\obj\usb_bsp.o
 .data          0x00000000        0x0 ..\obj\usb_bsp.o
 .bss           0x00000000        0x0 ..\obj\usb_bsp.o
 .text.USB_OTG_BSP_Init
                0x00000000       0xb8 ..\obj\usb_bsp.o
 .text.USB_OTG_BSP_EnableInterrupt
                0x00000000       0x30 ..\obj\usb_bsp.o
 .text.USB_OTG_BSP_mDelay
                0x00000000       0x20 ..\obj\usb_bsp.o
 .text          0x00000000        0x0 ..\obj\usbd_req.o
 .data          0x00000000        0x0 ..\obj\usbd_req.o
 .text.USBD_GetString
                0x00000000       0x84 ..\obj\usbd_req.o
 .text.USBD_GetLen
                0x00000000       0x30 ..\obj\usbd_req.o
 COMMON         0x00000000       0x40 ..\obj\usbd_req.o
 .text          0x00000000        0x0 ..\obj\queue.o
 .data          0x00000000        0x0 ..\obj\queue.o
 .bss           0x00000000        0x0 ..\obj\queue.o
 .text.xQueueCreateMutex
                0x00000000       0x88 ..\obj\queue.o
 .text.xQueueGiveMutexRecursive
                0x00000000       0x58 ..\obj\queue.o
 .text.xQueueTakeMutexRecursive
                0x00000000       0x60 ..\obj\queue.o
 .text.xQueueCreateCountingSemaphore
                0x00000000       0x38 ..\obj\queue.o
 .text.xQueueReceiveFromISR
                0x00000000       0xb4 ..\obj\queue.o
 .text.xQueuePeekFromISR
                0x00000000       0x78 ..\obj\queue.o
 .text.uxQueueMessagesWaiting
                0x00000000       0x2c ..\obj\queue.o
 .text.uxQueueMessagesWaitingFromISR
                0x00000000       0x24 ..\obj\queue.o
 .text.vQueueDelete
                0x00000000       0x34 ..\obj\queue.o
 .text.xQueueIsQueueEmptyFromISR
                0x00000000       0x30 ..\obj\queue.o
 .text.xQueueIsQueueFullFromISR
                0x00000000       0x34 ..\obj\queue.o
 .text.vQueueAddToRegistry
                0x00000000       0x50 ..\obj\queue.o
 .text.vQueueUnregisterQueue
                0x00000000       0x44 ..\obj\queue.o
 COMMON         0x00000000       0x40 ..\obj\queue.o
 .text          0x00000000        0x0 ..\obj\port.o
 .rodata        0x00000000        0x4 ..\obj\port.o
 .text.vPortEndScheduler
                0x00000000        0xc ..\obj\port.o
 .text          0x00000000        0x0 ..\obj\usb_dcd_int.o
 .data          0x00000000        0x0 ..\obj\usb_dcd_int.o
 .bss           0x00000000        0x0 ..\obj\usb_dcd_int.o
 .text          0x00000000        0x0 ..\obj\usbd_msc_data.o
 .data          0x00000000        0x0 ..\obj\usbd_msc_data.o
 .bss           0x00000000        0x0 ..\obj\usbd_msc_data.o
 .rodata        0x00000000       0x18 ..\obj\usbd_msc_data.o
 .debug_info    0x00000000      0x11c ..\obj\usbd_msc_data.o
 .debug_abbrev  0x00000000       0x73 ..\obj\usbd_msc_data.o
 .debug_aranges
                0x00000000       0x18 ..\obj\usbd_msc_data.o
 .debug_line    0x00000000      0x1d1 ..\obj\usbd_msc_data.o
 .debug_str     0x00000000      0x23b ..\obj\usbd_msc_data.o
 .comment       0x00000000       0x71 ..\obj\usbd_msc_data.o
 .ARM.attributes
                0x00000000       0x37 ..\obj\usbd_msc_data.o
 .text          0x00000000        0x0 ..\obj\debug.o
 .data          0x00000000        0x0 ..\obj\debug.o
 .text.mav_array_memcpy
                0x00000000       0x30 ..\obj\debug.o
 .text.debug_config
                0x00000000       0xa4 ..\obj\debug.o
 .text          0x00000000        0x0 ..\obj\ff.o
 .data          0x00000000        0x0 ..\obj\ff.o
 .text.dir_read
                0x00000000       0x90 ..\obj\ff.o
 .text.dir_remove
                0x00000000       0x54 ..\obj\ff.o
 .text.get_fileinfo
                0x00000000      0x118 ..\obj\ff.o
 .text.f_read   0x00000000      0x2b8 ..\obj\ff.o
 .text.f_opendir
                0x00000000       0xcc ..\obj\ff.o
 .text.f_readdir
                0x00000000       0x90 ..\obj\ff.o
 .text.f_stat   0x00000000       0x70 ..\obj\ff.o
 .text.f_getfree
                0x00000000      0x19c ..\obj\ff.o
 .text.f_truncate
                0x00000000      0x11c ..\obj\ff.o
 .text.f_unlink
                0x00000000      0x180 ..\obj\ff.o
 .text.f_mkdir  0x00000000      0x2d8 ..\obj\ff.o
 .text.f_chmod  0x00000000       0xac ..\obj\ff.o
 .text.f_utime  0x00000000       0xb4 ..\obj\ff.o
 .text.f_rename
                0x00000000      0x214 ..\obj\ff.o
 .text          0x00000000        0x0 ..\obj\croutine.o
 .data          0x00000000        0x0 ..\obj\croutine.o
 .bss           0x00000000       0x80 ..\obj\croutine.o
 .text.xCoRoutineCreate
                0x00000000       0xcc ..\obj\croutine.o
 .text.vCoRoutineAddToDelayedList
                0x00000000       0x84 ..\obj\croutine.o
 .text.prvCheckPendingReadyList
                0x00000000       0x78 ..\obj\croutine.o
 .text.prvCheckDelayedList
                0x00000000       0xf4 ..\obj\croutine.o
 .text.vCoRoutineSchedule
                0x00000000       0xa0 ..\obj\croutine.o
 .text.prvInitialiseCoRoutineLists
                0x00000000       0x68 ..\obj\croutine.o
 .text.xCoRoutineRemoveFromEventList
                0x00000000       0x50 ..\obj\croutine.o
 .debug_info    0x00000000      0x498 ..\obj\croutine.o
 .debug_abbrev  0x00000000      0x196 ..\obj\croutine.o
 .debug_aranges
                0x00000000       0x50 ..\obj\croutine.o
 .debug_ranges  0x00000000       0x40 ..\obj\croutine.o
 .debug_line    0x00000000      0x382 ..\obj\croutine.o
 .debug_str     0x00000000      0x50b ..\obj\croutine.o
 .comment       0x00000000       0x71 ..\obj\croutine.o
 .debug_frame   0x00000000      0x10c ..\obj\croutine.o
 .ARM.attributes
                0x00000000       0x37 ..\obj\croutine.o
 .text          0x00000000        0x0 ..\obj\stm32f4xx_i2c.o
 .data          0x00000000        0x0 ..\obj\stm32f4xx_i2c.o
 .bss           0x00000000        0x0 ..\obj\stm32f4xx_i2c.o
 .text.I2C_StructInit
                0x00000000       0x3c ..\obj\stm32f4xx_i2c.o
 .text.I2C_OwnAddress2Config
                0x00000000       0x40 ..\obj\stm32f4xx_i2c.o
 .text.I2C_DualAddressCmd
                0x00000000       0x40 ..\obj\stm32f4xx_i2c.o
 .text.I2C_GeneralCallCmd
                0x00000000       0x40 ..\obj\stm32f4xx_i2c.o
 .text.I2C_SoftwareResetCmd
                0x00000000       0x44 ..\obj\stm32f4xx_i2c.o
 .text.I2C_StretchClockCmd
                0x00000000       0x40 ..\obj\stm32f4xx_i2c.o
 .text.I2C_FastModeDutyCycleConfig
                0x00000000       0x40 ..\obj\stm32f4xx_i2c.o
 .text.I2C_SMBusAlertConfig
                0x00000000       0x40 ..\obj\stm32f4xx_i2c.o
 .text.I2C_ARPCmd
                0x00000000       0x40 ..\obj\stm32f4xx_i2c.o
 .text.I2C_TransmitPEC
                0x00000000       0x40 ..\obj\stm32f4xx_i2c.o
 .text.I2C_PECPositionConfig
                0x00000000       0x40 ..\obj\stm32f4xx_i2c.o
 .text.I2C_CalculatePEC
                0x00000000       0x40 ..\obj\stm32f4xx_i2c.o
 .text.I2C_GetPEC
                0x00000000       0x20 ..\obj\stm32f4xx_i2c.o
 .text.I2C_DMACmd
                0x00000000       0x40 ..\obj\stm32f4xx_i2c.o
 .text.I2C_DMALastTransferCmd
                0x00000000       0x40 ..\obj\stm32f4xx_i2c.o
 .text.I2C_ReadRegister
                0x00000000       0x30 ..\obj\stm32f4xx_i2c.o
 .text.I2C_ITConfig
                0x00000000       0x48 ..\obj\stm32f4xx_i2c.o
 .text.I2C_GetLastEvent
                0x00000000       0x44 ..\obj\stm32f4xx_i2c.o
 .text.I2C_ClearFlag
                0x00000000       0x2c ..\obj\stm32f4xx_i2c.o
 .text.I2C_GetITStatus
                0x00000000       0x5c ..\obj\stm32f4xx_i2c.o
 .text.I2C_ClearITPendingBit
                0x00000000       0x2c ..\obj\stm32f4xx_i2c.o
 .text          0x00000000        0x0 ..\obj\stm32f4xx_exti.o
 .data          0x00000000        0x0 ..\obj\stm32f4xx_exti.o
 .bss           0x00000000        0x0 ..\obj\stm32f4xx_exti.o
 .text.EXTI_DeInit
                0x00000000       0x34 ..\obj\stm32f4xx_exti.o
 .text.EXTI_StructInit
                0x00000000       0x2c ..\obj\stm32f4xx_exti.o
 .text.EXTI_GenerateSWInterrupt
                0x00000000       0x24 ..\obj\stm32f4xx_exti.o
 .text.EXTI_GetFlagStatus
                0x00000000       0x34 ..\obj\stm32f4xx_exti.o
 .text.EXTI_ClearFlag
                0x00000000       0x1c ..\obj\stm32f4xx_exti.o
 .text          0x00000000        0x0 ..\obj\vector.o
 .data          0x00000000        0x0 ..\obj\vector.o
 .bss           0x00000000        0x0 ..\obj\vector.o
 .text          0x00000000        0x0 ..\obj\misc.o
 .data          0x00000000        0x0 ..\obj\misc.o
 .bss           0x00000000        0x0 ..\obj\misc.o
 .text.NVIC_SetVectorTable
                0x00000000       0x2c ..\obj\misc.o
 .text.NVIC_SystemLPConfig
                0x00000000       0x40 ..\obj\misc.o
 .text.SysTick_CLKSourceConfig
                0x00000000       0x38 ..\obj\misc.o
 .text          0x00000000        0x0 ..\obj\usb_dcd.o
 .data          0x00000000        0x0 ..\obj\usb_dcd.o
 .bss           0x00000000        0x0 ..\obj\usb_dcd.o
 .text.DCD_Init
                0x00000000      0x104 ..\obj\usb_dcd.o
 .text.DCD_EP_Close
                0x00000000       0x74 ..\obj\usb_dcd.o
 .text.DCD_EP_Flush
                0x00000000       0x34 ..\obj\usb_dcd.o
 .text.DCD_DevConnect
                0x00000000       0x2c ..\obj\usb_dcd.o
 .text.DCD_DevDisconnect
                0x00000000       0x2c ..\obj\usb_dcd.o
 .text.DCD_GetEPStatus
                0x00000000       0x60 ..\obj\usb_dcd.o
 .text.DCD_SetEPStatus
                0x00000000       0x58 ..\obj\usb_dcd.o
 .text          0x00000000        0x0 ..\obj\matrix.o
 .data          0x00000000        0x0 ..\obj\matrix.o
 .bss           0x00000000        0x0 ..\obj\matrix.o
 .text          0x00000000        0x0 ..\obj\MPU6050.o
 .data          0x00000000        0x0 ..\obj\MPU6050.o
 .bss           0x00000000        0x0 ..\obj\MPU6050.o
 .text.mav_array_memcpy
                0x00000000       0x30 ..\obj\MPU6050.o
 .text.MPU6050_TestConnection
                0x00000000       0x18 ..\obj\MPU6050.o
 .text.MPU6050_GetDeviceID
                0x00000000       0x20 ..\obj\MPU6050.o
 .text.MPU6050_GetFullScaleGyroRange
                0x00000000       0x20 ..\obj\MPU6050.o
 .text.MPU6050_GetFullScaleAccelRange
                0x00000000       0x20 ..\obj\MPU6050.o
 .text.MPU6050_GetSleepModeStatus
                0x00000000       0x28 ..\obj\MPU6050.o
 .text.MPU6050_GetRawAccelGyro
                0x00000000       0xb0 ..\obj\MPU6050.o
 .text.MPU6050_ReadBits
                0x00000000       0x74 ..\obj\MPU6050.o
 .text.MPU6050_ReadBit
                0x00000000       0x48 ..\obj\MPU6050.o
 .text.MPU6050_I2C_ByteWrite_TO
                0x00000000      0x130 ..\obj\MPU6050.o
 .text          0x00000000        0x0 ..\obj\air_speed.o
 .data          0x00000000        0x0 ..\obj\air_speed.o
 .text.mav_array_memcpy
                0x00000000       0x30 ..\obj\air_speed.o
 .text          0x00000000        0x0 ..\obj\heap_1.o
 .data          0x00000000        0x0 ..\obj\heap_1.o
 .text.vPortInitialiseBlocks
                0x00000000       0x18 ..\obj\heap_1.o
 .text.xPortGetFreeHeapSize
                0x00000000       0x20 ..\obj\heap_1.o
 .text          0x00000000        0x0 ..\obj\usbd_ioreq.o
 .data          0x00000000        0x0 ..\obj\usbd_ioreq.o
 .bss           0x00000000        0x0 ..\obj\usbd_ioreq.o
 .text.USBD_CtlPrepareRx
                0x00000000       0x40 ..\obj\usbd_ioreq.o
 .text.USBD_GetRxCount
                0x00000000       0x30 ..\obj\usbd_ioreq.o
 .text          0x00000000        0x0 ..\obj\usbd_msc_bot.o
 .data          0x00000000        0x0 ..\obj\usbd_msc_bot.o
 .bss           0x00000000        0x0 ..\obj\usbd_msc_bot.o
 .text.MSC_BOT_Init
                0x00000000       0x50 ..\obj\usbd_msc_bot.o
 .text.MSC_BOT_Reset
                0x00000000       0x34 ..\obj\usbd_msc_bot.o
 .text.MSC_BOT_DeInit
                0x00000000       0x1c ..\obj\usbd_msc_bot.o
 .text.MSC_BOT_DataIn
                0x00000000       0x5c ..\obj\usbd_msc_bot.o
 .text.MSC_BOT_DataOut
                0x00000000       0x54 ..\obj\usbd_msc_bot.o
 .text.MSC_BOT_CBW_Decode
                0x00000000       0xe8 ..\obj\usbd_msc_bot.o
 .text.MSC_BOT_SendData
                0x00000000       0x54 ..\obj\usbd_msc_bot.o
 .text.MSC_BOT_SendCSW
                0x00000000       0x4c ..\obj\usbd_msc_bot.o
 .text.MSC_BOT_Abort
                0x00000000       0x54 ..\obj\usbd_msc_bot.o
 .text.MSC_BOT_CplClrFeature
                0x00000000       0x48 ..\obj\usbd_msc_bot.o
 .debug_info    0x00000000      0xedf ..\obj\usbd_msc_bot.o
 .debug_abbrev  0x00000000      0x213 ..\obj\usbd_msc_bot.o
 .debug_aranges
                0x00000000       0x68 ..\obj\usbd_msc_bot.o
 .debug_ranges  0x00000000       0x58 ..\obj\usbd_msc_bot.o
 .debug_line    0x00000000      0x393 ..\obj\usbd_msc_bot.o
 .debug_str     0x00000000      0xba0 ..\obj\usbd_msc_bot.o
 .comment       0x00000000       0x71 ..\obj\usbd_msc_bot.o
 .debug_frame   0x00000000      0x17c ..\obj\usbd_msc_bot.o
 .ARM.attributes
                0x00000000       0x37 ..\obj\usbd_msc_bot.o
 COMMON         0x00000000     0x1038 ..\obj\usbd_msc_bot.o
 .text          0x00000000        0x0 ..\obj\stm32f4xx_tim.o
 .data          0x00000000        0x0 ..\obj\stm32f4xx_tim.o
 .bss           0x00000000        0x0 ..\obj\stm32f4xx_tim.o
 .text.TIM_DeInit
                0x00000000      0x1bc ..\obj\stm32f4xx_tim.o
 .text.TIM_PrescalerConfig
                0x00000000       0x28 ..\obj\stm32f4xx_tim.o
 .text.TIM_CounterModeConfig
                0x00000000       0x38 ..\obj\stm32f4xx_tim.o
 .text.TIM_SetCounter
                0x00000000       0x1c ..\obj\stm32f4xx_tim.o
 .text.TIM_SetAutoreload
                0x00000000       0x1c ..\obj\stm32f4xx_tim.o
 .text.TIM_GetCounter
                0x00000000       0x18 ..\obj\stm32f4xx_tim.o
 .text.TIM_GetPrescaler
                0x00000000       0x1c ..\obj\stm32f4xx_tim.o
 .text.TIM_UpdateDisableConfig
                0x00000000       0x40 ..\obj\stm32f4xx_tim.o
 .text.TIM_UpdateRequestConfig
                0x00000000       0x40 ..\obj\stm32f4xx_tim.o
 .text.TIM_SelectOnePulseMode
                0x00000000       0x38 ..\obj\stm32f4xx_tim.o
 .text.TIM_SetClockDivision
                0x00000000       0x38 ..\obj\stm32f4xx_tim.o
 .text.TIM_OCStructInit
                0x00000000       0x44 ..\obj\stm32f4xx_tim.o
 .text.TIM_SelectOCxM
                0x00000000       0xb0 ..\obj\stm32f4xx_tim.o
 .text.TIM_ForcedOC1Config
                0x00000000       0x38 ..\obj\stm32f4xx_tim.o
 .text.TIM_ForcedOC2Config
                0x00000000       0x3c ..\obj\stm32f4xx_tim.o
 .text.TIM_ForcedOC3Config
                0x00000000       0x38 ..\obj\stm32f4xx_tim.o
 .text.TIM_ForcedOC4Config
                0x00000000       0x3c ..\obj\stm32f4xx_tim.o
 .text.TIM_OC1FastConfig
                0x00000000       0x38 ..\obj\stm32f4xx_tim.o
 .text.TIM_OC2FastConfig
                0x00000000       0x3c ..\obj\stm32f4xx_tim.o
 .text.TIM_OC3FastConfig
                0x00000000       0x38 ..\obj\stm32f4xx_tim.o
 .text.TIM_OC4FastConfig
                0x00000000       0x3c ..\obj\stm32f4xx_tim.o
 .text.TIM_ClearOC1Ref
                0x00000000       0x38 ..\obj\stm32f4xx_tim.o
 .text.TIM_ClearOC2Ref
                0x00000000       0x3c ..\obj\stm32f4xx_tim.o
 .text.TIM_ClearOC3Ref
                0x00000000       0x38 ..\obj\stm32f4xx_tim.o
 .text.TIM_ClearOC4Ref
                0x00000000       0x3c ..\obj\stm32f4xx_tim.o
 .text.TIM_OC1PolarityConfig
                0x00000000       0x38 ..\obj\stm32f4xx_tim.o
 .text.TIM_OC1NPolarityConfig
                0x00000000       0x38 ..\obj\stm32f4xx_tim.o
 .text.TIM_OC2PolarityConfig
                0x00000000       0x3c ..\obj\stm32f4xx_tim.o
 .text.TIM_OC2NPolarityConfig
                0x00000000       0x3c ..\obj\stm32f4xx_tim.o
 .text.TIM_OC3PolarityConfig
                0x00000000       0x3c ..\obj\stm32f4xx_tim.o
 .text.TIM_OC3NPolarityConfig
                0x00000000       0x3c ..\obj\stm32f4xx_tim.o
 .text.TIM_OC4PolarityConfig
                0x00000000       0x3c ..\obj\stm32f4xx_tim.o
 .text.TIM_CCxCmd
                0x00000000       0x54 ..\obj\stm32f4xx_tim.o
 .text.TIM_CCxNCmd
                0x00000000       0x54 ..\obj\stm32f4xx_tim.o
 .text.TIM_ICInit
                0x00000000       0xa8 ..\obj\stm32f4xx_tim.o
 .text.TIM_ICStructInit
                0x00000000       0x30 ..\obj\stm32f4xx_tim.o
 .text.TIM_PWMIConfig
                0x00000000       0xb8 ..\obj\stm32f4xx_tim.o
 .text.TIM_GetCapture1
                0x00000000       0x18 ..\obj\stm32f4xx_tim.o
 .text.TIM_GetCapture2
                0x00000000       0x18 ..\obj\stm32f4xx_tim.o
 .text.TIM_GetCapture3
                0x00000000       0x18 ..\obj\stm32f4xx_tim.o
 .text.TIM_GetCapture4
                0x00000000       0x18 ..\obj\stm32f4xx_tim.o
 .text.TIM_SetIC1Prescaler
                0x00000000       0x38 ..\obj\stm32f4xx_tim.o
 .text.TIM_SetIC2Prescaler
                0x00000000       0x3c ..\obj\stm32f4xx_tim.o
 .text.TIM_SetIC3Prescaler
                0x00000000       0x38 ..\obj\stm32f4xx_tim.o
 .text.TIM_SetIC4Prescaler
                0x00000000       0x3c ..\obj\stm32f4xx_tim.o
 .text.TIM_BDTRConfig
                0x00000000       0x50 ..\obj\stm32f4xx_tim.o
 .text.TIM_BDTRStructInit
                0x00000000       0x3c ..\obj\stm32f4xx_tim.o
 .text.TIM_SelectCOM
                0x00000000       0x40 ..\obj\stm32f4xx_tim.o
 .text.TIM_CCPreloadControl
                0x00000000       0x40 ..\obj\stm32f4xx_tim.o
 .text.TIM_ITConfig
                0x00000000       0x48 ..\obj\stm32f4xx_tim.o
 .text.TIM_GenerateEvent
                0x00000000       0x1c ..\obj\stm32f4xx_tim.o
 .text.TIM_GetFlagStatus
                0x00000000       0x38 ..\obj\stm32f4xx_tim.o
 .text.TIM_ClearFlag
                0x00000000       0x20 ..\obj\stm32f4xx_tim.o
 .text.TIM_GetITStatus
                0x00000000       0x54 ..\obj\stm32f4xx_tim.o
 .text.TIM_ClearITPendingBit
                0x00000000       0x20 ..\obj\stm32f4xx_tim.o
 .text.TIM_DMAConfig
                0x00000000       0x28 ..\obj\stm32f4xx_tim.o
 .text.TIM_DMACmd
                0x00000000       0x48 ..\obj\stm32f4xx_tim.o
 .text.TIM_SelectCCDMA
                0x00000000       0x40 ..\obj\stm32f4xx_tim.o
 .text.TIM_InternalClockConfig
                0x00000000       0x24 ..\obj\stm32f4xx_tim.o
 .text.TIM_ITRxExternalClockConfig
                0x00000000       0x2c ..\obj\stm32f4xx_tim.o
 .text.TIM_TIxExternalClockConfig
                0x00000000       0x60 ..\obj\stm32f4xx_tim.o
 .text.TIM_ETRClockMode1Config
                0x00000000       0x5c ..\obj\stm32f4xx_tim.o
 .text.TIM_ETRClockMode2Config
                0x00000000       0x3c ..\obj\stm32f4xx_tim.o
 .text.TIM_SelectInputTrigger
                0x00000000       0x38 ..\obj\stm32f4xx_tim.o
 .text.TIM_SelectSlaveMode
                0x00000000       0x38 ..\obj\stm32f4xx_tim.o
 .text.TIM_SelectMasterSlaveMode
                0x00000000       0x38 ..\obj\stm32f4xx_tim.o
 .text.TIM_ETRConfig
                0x00000000       0x54 ..\obj\stm32f4xx_tim.o
 .text.TIM_EncoderInterfaceConfig
                0x00000000       0x98 ..\obj\stm32f4xx_tim.o
 .text.TIM_SelectHallSensor
                0x00000000       0x40 ..\obj\stm32f4xx_tim.o
 .text.TIM_RemapConfig
                0x00000000       0x20 ..\obj\stm32f4xx_tim.o
 .text.TI1_Config
                0x00000000       0x84 ..\obj\stm32f4xx_tim.o
 .text.TI2_Config
                0x00000000       0x98 ..\obj\stm32f4xx_tim.o
 .text.TI3_Config
                0x00000000       0x90 ..\obj\stm32f4xx_tim.o
 .text.TI4_Config
                0x00000000       0x9c ..\obj\stm32f4xx_tim.o
 .text          0x00000000        0x0 ..\obj\stm32f4xx_dbgmcu.o
 .data          0x00000000        0x0 ..\obj\stm32f4xx_dbgmcu.o
 .bss           0x00000000        0x0 ..\obj\stm32f4xx_dbgmcu.o
 .text.DBGMCU_GetREVID
                0x00000000       0x18 ..\obj\stm32f4xx_dbgmcu.o
 .text.DBGMCU_GetDEVID
                0x00000000       0x1c ..\obj\stm32f4xx_dbgmcu.o
 .text.DBGMCU_APB1PeriphConfig
                0x00000000       0x3c ..\obj\stm32f4xx_dbgmcu.o
 .text.DBGMCU_APB2PeriphConfig
                0x00000000       0x3c ..\obj\stm32f4xx_dbgmcu.o
 .text          0x00000000        0x0 c:/program files (x86)/gnu tools arm embedded/4.9 2014q4/bin/../lib/gcc/arm-none-eabi/4.9.3/../../../../arm-none-eabi/lib/armv7e-m/softfp\libm.a(lib_a-s_cos.o)
 .data          0x00000000        0x0 c:/program files (x86)/gnu tools arm embedded/4.9 2014q4/bin/../lib/gcc/arm-none-eabi/4.9.3/../../../../arm-none-eabi/lib/armv7e-m/softfp\libm.a(lib_a-s_cos.o)
 .bss           0x00000000        0x0 c:/program files (x86)/gnu tools arm embedded/4.9 2014q4/bin/../lib/gcc/arm-none-eabi/4.9.3/../../../../arm-none-eabi/lib/armv7e-m/softfp\libm.a(lib_a-s_cos.o)
 .text          0x00000000        0x0 c:/program files (x86)/gnu tools arm embedded/4.9 2014q4/bin/../lib/gcc/arm-none-eabi/4.9.3/../../../../arm-none-eabi/lib/armv7e-m/softfp\libm.a(lib_a-s_sin.o)
 .data          0x00000000        0x0 c:/program files (x86)/gnu tools arm embedded/4.9 2014q4/bin/../lib/gcc/arm-none-eabi/4.9.3/../../../../arm-none-eabi/lib/armv7e-m/softfp\libm.a(lib_a-s_sin.o)
 .bss           0x00000000        0x0 c:/program files (x86)/gnu tools arm embedded/4.9 2014q4/bin/../lib/gcc/arm-none-eabi/4.9.3/../../../../arm-none-eabi/lib/armv7e-m/softfp\libm.a(lib_a-s_sin.o)
 .text          0x00000000        0x0 c:/program files (x86)/gnu tools arm embedded/4.9 2014q4/bin/../lib/gcc/arm-none-eabi/4.9.3/../../../../arm-none-eabi/lib/armv7e-m/softfp\libm.a(lib_a-w_asin.o)
 .data          0x00000000        0x0 c:/program files (x86)/gnu tools arm embedded/4.9 2014q4/bin/../lib/gcc/arm-none-eabi/4.9.3/../../../../arm-none-eabi/lib/armv7e-m/softfp\libm.a(lib_a-w_asin.o)
 .bss           0x00000000        0x0 c:/program files (x86)/gnu tools arm embedded/4.9 2014q4/bin/../lib/gcc/arm-none-eabi/4.9.3/../../../../arm-none-eabi/lib/armv7e-m/softfp\libm.a(lib_a-w_asin.o)
 .text          0x00000000        0x0 c:/program files (x86)/gnu tools arm embedded/4.9 2014q4/bin/../lib/gcc/arm-none-eabi/4.9.3/../../../../arm-none-eabi/lib/armv7e-m/softfp\libm.a(lib_a-w_atan2.o)
 .data          0x00000000        0x0 c:/program files (x86)/gnu tools arm embedded/4.9 2014q4/bin/../lib/gcc/arm-none-eabi/4.9.3/../../../../arm-none-eabi/lib/armv7e-m/softfp\libm.a(lib_a-w_atan2.o)
 .bss           0x00000000        0x0 c:/program files (x86)/gnu tools arm embedded/4.9 2014q4/bin/../lib/gcc/arm-none-eabi/4.9.3/../../../../arm-none-eabi/lib/armv7e-m/softfp\libm.a(lib_a-w_atan2.o)
 .text          0x00000000        0x0 c:/program files (x86)/gnu tools arm embedded/4.9 2014q4/bin/../lib/gcc/arm-none-eabi/4.9.3/../../../../arm-none-eabi/lib/armv7e-m/softfp\libm.a(lib_a-w_pow.o)
 .data          0x00000000        0x0 c:/program files (x86)/gnu tools arm embedded/4.9 2014q4/bin/../lib/gcc/arm-none-eabi/4.9.3/../../../../arm-none-eabi/lib/armv7e-m/softfp\libm.a(lib_a-w_pow.o)
 .bss           0x00000000        0x0 c:/program files (x86)/gnu tools arm embedded/4.9 2014q4/bin/../lib/gcc/arm-none-eabi/4.9.3/../../../../arm-none-eabi/lib/armv7e-m/softfp\libm.a(lib_a-w_pow.o)
 .text          0x00000000        0x0 c:/program files (x86)/gnu tools arm embedded/4.9 2014q4/bin/../lib/gcc/arm-none-eabi/4.9.3/../../../../arm-none-eabi/lib/armv7e-m/softfp\libm.a(lib_a-w_sqrt.o)
 .data          0x00000000        0x0 c:/program files (x86)/gnu tools arm embedded/4.9 2014q4/bin/../lib/gcc/arm-none-eabi/4.9.3/../../../../arm-none-eabi/lib/armv7e-m/softfp\libm.a(lib_a-w_sqrt.o)
 .bss           0x00000000        0x0 c:/program files (x86)/gnu tools arm embedded/4.9 2014q4/bin/../lib/gcc/arm-none-eabi/4.9.3/../../../../arm-none-eabi/lib/armv7e-m/softfp\libm.a(lib_a-w_sqrt.o)
 .text          0x00000000        0x0 c:/program files (x86)/gnu tools arm embedded/4.9 2014q4/bin/../lib/gcc/arm-none-eabi/4.9.3/../../../../arm-none-eabi/lib/armv7e-m/softfp\libm.a(lib_a-e_asin.o)
 .data          0x00000000        0x0 c:/program files (x86)/gnu tools arm embedded/4.9 2014q4/bin/../lib/gcc/arm-none-eabi/4.9.3/../../../../arm-none-eabi/lib/armv7e-m/softfp\libm.a(lib_a-e_asin.o)
 .bss           0x00000000        0x0 c:/program files (x86)/gnu tools arm embedded/4.9 2014q4/bin/../lib/gcc/arm-none-eabi/4.9.3/../../../../arm-none-eabi/lib/armv7e-m/softfp\libm.a(lib_a-e_asin.o)
 .text          0x00000000        0x0 c:/program files (x86)/gnu tools arm embedded/4.9 2014q4/bin/../lib/gcc/arm-none-eabi/4.9.3/../../../../arm-none-eabi/lib/armv7e-m/softfp\libm.a(lib_a-e_atan2.o)
 .data          0x00000000        0x0 c:/program files (x86)/gnu tools arm embedded/4.9 2014q4/bin/../lib/gcc/arm-none-eabi/4.9.3/../../../../arm-none-eabi/lib/armv7e-m/softfp\libm.a(lib_a-e_atan2.o)
 .bss           0x00000000        0x0 c:/program files (x86)/gnu tools arm embedded/4.9 2014q4/bin/../lib/gcc/arm-none-eabi/4.9.3/../../../../arm-none-eabi/lib/armv7e-m/softfp\libm.a(lib_a-e_atan2.o)
 .text          0x00000000        0x0 c:/program files (x86)/gnu tools arm embedded/4.9 2014q4/bin/../lib/gcc/arm-none-eabi/4.9.3/../../../../arm-none-eabi/lib/armv7e-m/softfp\libm.a(lib_a-e_pow.o)
 .data          0x00000000        0x0 c:/program files (x86)/gnu tools arm embedded/4.9 2014q4/bin/../lib/gcc/arm-none-eabi/4.9.3/../../../../arm-none-eabi/lib/armv7e-m/softfp\libm.a(lib_a-e_pow.o)
 .bss           0x00000000        0x0 c:/program files (x86)/gnu tools arm embedded/4.9 2014q4/bin/../lib/gcc/arm-none-eabi/4.9.3/../../../../arm-none-eabi/lib/armv7e-m/softfp\libm.a(lib_a-e_pow.o)
 .text          0x00000000        0x0 c:/program files (x86)/gnu tools arm embedded/4.9 2014q4/bin/../lib/gcc/arm-none-eabi/4.9.3/../../../../arm-none-eabi/lib/armv7e-m/softfp\libm.a(lib_a-e_rem_pio2.o)
 .data          0x00000000        0x0 c:/program files (x86)/gnu tools arm embedded/4.9 2014q4/bin/../lib/gcc/arm-none-eabi/4.9.3/../../../../arm-none-eabi/lib/armv7e-m/softfp\libm.a(lib_a-e_rem_pio2.o)
 .bss           0x00000000        0x0 c:/program files (x86)/gnu tools arm embedded/4.9 2014q4/bin/../lib/gcc/arm-none-eabi/4.9.3/../../../../arm-none-eabi/lib/armv7e-m/softfp\libm.a(lib_a-e_rem_pio2.o)
 .text          0x00000000        0x0 c:/program files (x86)/gnu tools arm embedded/4.9 2014q4/bin/../lib/gcc/arm-none-eabi/4.9.3/../../../../arm-none-eabi/lib/armv7e-m/softfp\libm.a(lib_a-e_sqrt.o)
 .data          0x00000000        0x0 c:/program files (x86)/gnu tools arm embedded/4.9 2014q4/bin/../lib/gcc/arm-none-eabi/4.9.3/../../../../arm-none-eabi/lib/armv7e-m/softfp\libm.a(lib_a-e_sqrt.o)
 .bss           0x00000000        0x0 c:/program files (x86)/gnu tools arm embedded/4.9 2014q4/bin/../lib/gcc/arm-none-eabi/4.9.3/../../../../arm-none-eabi/lib/armv7e-m/softfp\libm.a(lib_a-e_sqrt.o)
 .text          0x00000000        0x0 c:/program files (x86)/gnu tools arm embedded/4.9 2014q4/bin/../lib/gcc/arm-none-eabi/4.9.3/../../../../arm-none-eabi/lib/armv7e-m/softfp\libm.a(lib_a-k_cos.o)
 .data          0x00000000        0x0 c:/program files (x86)/gnu tools arm embedded/4.9 2014q4/bin/../lib/gcc/arm-none-eabi/4.9.3/../../../../arm-none-eabi/lib/armv7e-m/softfp\libm.a(lib_a-k_cos.o)
 .bss           0x00000000        0x0 c:/program files (x86)/gnu tools arm embedded/4.9 2014q4/bin/../lib/gcc/arm-none-eabi/4.9.3/../../../../arm-none-eabi/lib/armv7e-m/softfp\libm.a(lib_a-k_cos.o)
 .text          0x00000000        0x0 c:/program files (x86)/gnu tools arm embedded/4.9 2014q4/bin/../lib/gcc/arm-none-eabi/4.9.3/../../../../arm-none-eabi/lib/armv7e-m/softfp\libm.a(lib_a-k_rem_pio2.o)
 .data          0x00000000        0x0 c:/program files (x86)/gnu tools arm embedded/4.9 2014q4/bin/../lib/gcc/arm-none-eabi/4.9.3/../../../../arm-none-eabi/lib/armv7e-m/softfp\libm.a(lib_a-k_rem_pio2.o)
 .bss           0x00000000        0x0 c:/program files (x86)/gnu tools arm embedded/4.9 2014q4/bin/../lib/gcc/arm-none-eabi/4.9.3/../../../../arm-none-eabi/lib/armv7e-m/softfp\libm.a(lib_a-k_rem_pio2.o)
 .text          0x00000000        0x0 c:/program files (x86)/gnu tools arm embedded/4.9 2014q4/bin/../lib/gcc/arm-none-eabi/4.9.3/../../../../arm-none-eabi/lib/armv7e-m/softfp\libm.a(lib_a-k_sin.o)
 .data          0x00000000        0x0 c:/program files (x86)/gnu tools arm embedded/4.9 2014q4/bin/../lib/gcc/arm-none-eabi/4.9.3/../../../../arm-none-eabi/lib/armv7e-m/softfp\libm.a(lib_a-k_sin.o)
 .bss           0x00000000        0x0 c:/program files (x86)/gnu tools arm embedded/4.9 2014q4/bin/../lib/gcc/arm-none-eabi/4.9.3/../../../../arm-none-eabi/lib/armv7e-m/softfp\libm.a(lib_a-k_sin.o)
 .text          0x00000000        0x0 c:/program files (x86)/gnu tools arm embedded/4.9 2014q4/bin/../lib/gcc/arm-none-eabi/4.9.3/../../../../arm-none-eabi/lib/armv7e-m/softfp\libm.a(lib_a-s_atan.o)
 .data          0x00000000        0x0 c:/program files (x86)/gnu tools arm embedded/4.9 2014q4/bin/../lib/gcc/arm-none-eabi/4.9.3/../../../../arm-none-eabi/lib/armv7e-m/softfp\libm.a(lib_a-s_atan.o)
 .bss           0x00000000        0x0 c:/program files (x86)/gnu tools arm embedded/4.9 2014q4/bin/../lib/gcc/arm-none-eabi/4.9.3/../../../../arm-none-eabi/lib/armv7e-m/softfp\libm.a(lib_a-s_atan.o)
 .text          0x00000000        0x0 c:/program files (x86)/gnu tools arm embedded/4.9 2014q4/bin/../lib/gcc/arm-none-eabi/4.9.3/../../../../arm-none-eabi/lib/armv7e-m/softfp\libm.a(lib_a-s_fabs.o)
 .data          0x00000000        0x0 c:/program files (x86)/gnu tools arm embedded/4.9 2014q4/bin/../lib/gcc/arm-none-eabi/4.9.3/../../../../arm-none-eabi/lib/armv7e-m/softfp\libm.a(lib_a-s_fabs.o)
 .bss           0x00000000        0x0 c:/program files (x86)/gnu tools arm embedded/4.9 2014q4/bin/../lib/gcc/arm-none-eabi/4.9.3/../../../../arm-none-eabi/lib/armv7e-m/softfp\libm.a(lib_a-s_fabs.o)
 .text          0x00000000        0x0 c:/program files (x86)/gnu tools arm embedded/4.9 2014q4/bin/../lib/gcc/arm-none-eabi/4.9.3/../../../../arm-none-eabi/lib/armv7e-m/softfp\libm.a(lib_a-s_finite.o)
 .data          0x00000000        0x0 c:/program files (x86)/gnu tools arm embedded/4.9 2014q4/bin/../lib/gcc/arm-none-eabi/4.9.3/../../../../arm-none-eabi/lib/armv7e-m/softfp\libm.a(lib_a-s_finite.o)
 .bss           0x00000000        0x0 c:/program files (x86)/gnu tools arm embedded/4.9 2014q4/bin/../lib/gcc/arm-none-eabi/4.9.3/../../../../arm-none-eabi/lib/armv7e-m/softfp\libm.a(lib_a-s_finite.o)
 .text          0x00000000        0x0 c:/program files (x86)/gnu tools arm embedded/4.9 2014q4/bin/../lib/gcc/arm-none-eabi/4.9.3/../../../../arm-none-eabi/lib/armv7e-m/softfp\libm.a(lib_a-s_floor.o)
 .data          0x00000000        0x0 c:/program files (x86)/gnu tools arm embedded/4.9 2014q4/bin/../lib/gcc/arm-none-eabi/4.9.3/../../../../arm-none-eabi/lib/armv7e-m/softfp\libm.a(lib_a-s_floor.o)
 .bss           0x00000000        0x0 c:/program files (x86)/gnu tools arm embedded/4.9 2014q4/bin/../lib/gcc/arm-none-eabi/4.9.3/../../../../arm-none-eabi/lib/armv7e-m/softfp\libm.a(lib_a-s_floor.o)
 .text          0x00000000        0x0 c:/program files (x86)/gnu tools arm embedded/4.9 2014q4/bin/../lib/gcc/arm-none-eabi/4.9.3/../../../../arm-none-eabi/lib/armv7e-m/softfp\libm.a(lib_a-s_fpclassify.o)
 .data          0x00000000        0x0 c:/program files (x86)/gnu tools arm embedded/4.9 2014q4/bin/../lib/gcc/arm-none-eabi/4.9.3/../../../../arm-none-eabi/lib/armv7e-m/softfp\libm.a(lib_a-s_fpclassify.o)
 .bss           0x00000000        0x0 c:/program files (x86)/gnu tools arm embedded/4.9 2014q4/bin/../lib/gcc/arm-none-eabi/4.9.3/../../../../arm-none-eabi/lib/armv7e-m/softfp\libm.a(lib_a-s_fpclassify.o)
 .text          0x00000000        0x0 c:/program files (x86)/gnu tools arm embedded/4.9 2014q4/bin/../lib/gcc/arm-none-eabi/4.9.3/../../../../arm-none-eabi/lib/armv7e-m/softfp\libm.a(lib_a-s_lib_ver.o)
 .data          0x00000000        0x0 c:/program files (x86)/gnu tools arm embedded/4.9 2014q4/bin/../lib/gcc/arm-none-eabi/4.9.3/../../../../arm-none-eabi/lib/armv7e-m/softfp\libm.a(lib_a-s_lib_ver.o)
 .bss           0x00000000        0x0 c:/program files (x86)/gnu tools arm embedded/4.9 2014q4/bin/../lib/gcc/arm-none-eabi/4.9.3/../../../../arm-none-eabi/lib/armv7e-m/softfp\libm.a(lib_a-s_lib_ver.o)
 .text          0x00000000        0x0 c:/program files (x86)/gnu tools arm embedded/4.9 2014q4/bin/../lib/gcc/arm-none-eabi/4.9.3/../../../../arm-none-eabi/lib/armv7e-m/softfp\libm.a(lib_a-s_matherr.o)
 .data          0x00000000        0x0 c:/program files (x86)/gnu tools arm embedded/4.9 2014q4/bin/../lib/gcc/arm-none-eabi/4.9.3/../../../../arm-none-eabi/lib/armv7e-m/softfp\libm.a(lib_a-s_matherr.o)
 .bss           0x00000000        0x0 c:/program files (x86)/gnu tools arm embedded/4.9 2014q4/bin/../lib/gcc/arm-none-eabi/4.9.3/../../../../arm-none-eabi/lib/armv7e-m/softfp\libm.a(lib_a-s_matherr.o)
 .text          0x00000000        0x0 c:/program files (x86)/gnu tools arm embedded/4.9 2014q4/bin/../lib/gcc/arm-none-eabi/4.9.3/../../../../arm-none-eabi/lib/armv7e-m/softfp\libm.a(lib_a-s_nan.o)
 .data          0x00000000        0x0 c:/program files (x86)/gnu tools arm embedded/4.9 2014q4/bin/../lib/gcc/arm-none-eabi/4.9.3/../../../../arm-none-eabi/lib/armv7e-m/softfp\libm.a(lib_a-s_nan.o)
 .bss           0x00000000        0x0 c:/program files (x86)/gnu tools arm embedded/4.9 2014q4/bin/../lib/gcc/arm-none-eabi/4.9.3/../../../../arm-none-eabi/lib/armv7e-m/softfp\libm.a(lib_a-s_nan.o)
 .text          0x00000000        0x0 c:/program files (x86)/gnu tools arm embedded/4.9 2014q4/bin/../lib/gcc/arm-none-eabi/4.9.3/../../../../arm-none-eabi/lib/armv7e-m/softfp\libm.a(lib_a-s_rint.o)
 .data          0x00000000        0x0 c:/program files (x86)/gnu tools arm embedded/4.9 2014q4/bin/../lib/gcc/arm-none-eabi/4.9.3/../../../../arm-none-eabi/lib/armv7e-m/softfp\libm.a(lib_a-s_rint.o)
 .bss           0x00000000        0x0 c:/program files (x86)/gnu tools arm embedded/4.9 2014q4/bin/../lib/gcc/arm-none-eabi/4.9.3/../../../../arm-none-eabi/lib/armv7e-m/softfp\libm.a(lib_a-s_rint.o)
 .text          0x00000000        0x0 c:/program files (x86)/gnu tools arm embedded/4.9 2014q4/bin/../lib/gcc/arm-none-eabi/4.9.3/../../../../arm-none-eabi/lib/armv7e-m/softfp\libm.a(lib_a-s_scalbn.o)
 .data          0x00000000        0x0 c:/program files (x86)/gnu tools arm embedded/4.9 2014q4/bin/../lib/gcc/arm-none-eabi/4.9.3/../../../../arm-none-eabi/lib/armv7e-m/softfp\libm.a(lib_a-s_scalbn.o)
 .bss           0x00000000        0x0 c:/program files (x86)/gnu tools arm embedded/4.9 2014q4/bin/../lib/gcc/arm-none-eabi/4.9.3/../../../../arm-none-eabi/lib/armv7e-m/softfp\libm.a(lib_a-s_scalbn.o)
 .text          0x00000000        0x0 c:/program files (x86)/gnu tools arm embedded/4.9 2014q4/bin/../lib/gcc/arm-none-eabi/4.9.3/../../../../arm-none-eabi/lib/armv7e-m/softfp\libm.a(lib_a-s_copysign.o)
 .data          0x00000000        0x0 c:/program files (x86)/gnu tools arm embedded/4.9 2014q4/bin/../lib/gcc/arm-none-eabi/4.9.3/../../../../arm-none-eabi/lib/armv7e-m/softfp\libm.a(lib_a-s_copysign.o)
 .bss           0x00000000        0x0 c:/program files (x86)/gnu tools arm embedded/4.9 2014q4/bin/../lib/gcc/arm-none-eabi/4.9.3/../../../../arm-none-eabi/lib/armv7e-m/softfp\libm.a(lib_a-s_copysign.o)
 .data          0x00000000        0x0 c:/program files (x86)/gnu tools arm embedded/4.9 2014q4/bin/../lib/gcc/arm-none-eabi/4.9.3/armv7e-m/softfp\libgcc.a(_arm_addsubdf3.o)
 .bss           0x00000000        0x0 c:/program files (x86)/gnu tools arm embedded/4.9 2014q4/bin/../lib/gcc/arm-none-eabi/4.9.3/armv7e-m/softfp\libgcc.a(_arm_addsubdf3.o)
 .data          0x00000000        0x0 c:/program files (x86)/gnu tools arm embedded/4.9 2014q4/bin/../lib/gcc/arm-none-eabi/4.9.3/armv7e-m/softfp\libgcc.a(_arm_muldivdf3.o)
 .bss           0x00000000        0x0 c:/program files (x86)/gnu tools arm embedded/4.9 2014q4/bin/../lib/gcc/arm-none-eabi/4.9.3/armv7e-m/softfp\libgcc.a(_arm_muldivdf3.o)
 .data          0x00000000        0x0 c:/program files (x86)/gnu tools arm embedded/4.9 2014q4/bin/../lib/gcc/arm-none-eabi/4.9.3/armv7e-m/softfp\libgcc.a(_arm_cmpdf2.o)
 .bss           0x00000000        0x0 c:/program files (x86)/gnu tools arm embedded/4.9 2014q4/bin/../lib/gcc/arm-none-eabi/4.9.3/armv7e-m/softfp\libgcc.a(_arm_cmpdf2.o)
 .data          0x00000000        0x0 c:/program files (x86)/gnu tools arm embedded/4.9 2014q4/bin/../lib/gcc/arm-none-eabi/4.9.3/armv7e-m/softfp\libgcc.a(_arm_fixdfsi.o)
 .bss           0x00000000        0x0 c:/program files (x86)/gnu tools arm embedded/4.9 2014q4/bin/../lib/gcc/arm-none-eabi/4.9.3/armv7e-m/softfp\libgcc.a(_arm_fixdfsi.o)
 .data          0x00000000        0x0 c:/program files (x86)/gnu tools arm embedded/4.9 2014q4/bin/../lib/gcc/arm-none-eabi/4.9.3/armv7e-m/softfp\libgcc.a(_arm_fixunsdfsi.o)
 .bss           0x00000000        0x0 c:/program files (x86)/gnu tools arm embedded/4.9 2014q4/bin/../lib/gcc/arm-none-eabi/4.9.3/armv7e-m/softfp\libgcc.a(_arm_fixunsdfsi.o)
 .data          0x00000000        0x0 c:/program files (x86)/gnu tools arm embedded/4.9 2014q4/bin/../lib/gcc/arm-none-eabi/4.9.3/armv7e-m/softfp\libgcc.a(_arm_truncdfsf2.o)
 .bss           0x00000000        0x0 c:/program files (x86)/gnu tools arm embedded/4.9 2014q4/bin/../lib/gcc/arm-none-eabi/4.9.3/armv7e-m/softfp\libgcc.a(_arm_truncdfsf2.o)
 .data          0x00000000        0x0 c:/program files (x86)/gnu tools arm embedded/4.9 2014q4/bin/../lib/gcc/arm-none-eabi/4.9.3/armv7e-m/softfp\libgcc.a(_arm_addsubsf3.o)
 .bss           0x00000000        0x0 c:/program files (x86)/gnu tools arm embedded/4.9 2014q4/bin/../lib/gcc/arm-none-eabi/4.9.3/armv7e-m/softfp\libgcc.a(_arm_addsubsf3.o)
 .text          0x00000000        0x0 c:/program files (x86)/gnu tools arm embedded/4.9 2014q4/bin/../lib/gcc/arm-none-eabi/4.9.3/../../../../arm-none-eabi/lib/armv7e-m/softfp\libg.a(lib_a-errno.o)
 .data          0x00000000        0x0 c:/program files (x86)/gnu tools arm embedded/4.9 2014q4/bin/../lib/gcc/arm-none-eabi/4.9.3/../../../../arm-none-eabi/lib/armv7e-m/softfp\libg.a(lib_a-errno.o)
 .bss           0x00000000        0x0 c:/program files (x86)/gnu tools arm embedded/4.9 2014q4/bin/../lib/gcc/arm-none-eabi/4.9.3/../../../../arm-none-eabi/lib/armv7e-m/softfp\libg.a(lib_a-errno.o)
 .text          0x00000000        0x0 c:/program files (x86)/gnu tools arm embedded/4.9 2014q4/bin/../lib/gcc/arm-none-eabi/4.9.3/../../../../arm-none-eabi/lib/armv7e-m/softfp\libg.a(lib_a-impure.o)
 .data          0x00000000        0x0 c:/program files (x86)/gnu tools arm embedded/4.9 2014q4/bin/../lib/gcc/arm-none-eabi/4.9.3/../../../../arm-none-eabi/lib/armv7e-m/softfp\libg.a(lib_a-impure.o)
 .bss           0x00000000        0x0 c:/program files (x86)/gnu tools arm embedded/4.9 2014q4/bin/../lib/gcc/arm-none-eabi/4.9.3/../../../../arm-none-eabi/lib/armv7e-m/softfp\libg.a(lib_a-impure.o)
 .rodata._global_impure_ptr
                0x00000000        0x4 c:/program files (x86)/gnu tools arm embedded/4.9 2014q4/bin/../lib/gcc/arm-none-eabi/4.9.3/../../../../arm-none-eabi/lib/armv7e-m/softfp\libg.a(lib_a-impure.o)
 .data          0x00000000        0x0 c:/program files (x86)/gnu tools arm embedded/4.9 2014q4/bin/../lib/gcc/arm-none-eabi/4.9.3/../../../../arm-none-eabi/lib/armv7e-m/softfp\libg.a(lib_a-memcpy.o)
 .bss           0x00000000        0x0 c:/program files (x86)/gnu tools arm embedded/4.9 2014q4/bin/../lib/gcc/arm-none-eabi/4.9.3/../../../../arm-none-eabi/lib/armv7e-m/softfp\libg.a(lib_a-memcpy.o)
 .text          0x00000000        0x0 c:/program files (x86)/gnu tools arm embedded/4.9 2014q4/bin/../lib/gcc/arm-none-eabi/4.9.3/../../../../arm-none-eabi/lib/armv7e-m/softfp\libg.a(lib_a-memset.o)
 .data          0x00000000        0x0 c:/program files (x86)/gnu tools arm embedded/4.9 2014q4/bin/../lib/gcc/arm-none-eabi/4.9.3/../../../../arm-none-eabi/lib/armv7e-m/softfp\libg.a(lib_a-memset.o)
 .bss           0x00000000        0x0 c:/program files (x86)/gnu tools arm embedded/4.9 2014q4/bin/../lib/gcc/arm-none-eabi/4.9.3/../../../../arm-none-eabi/lib/armv7e-m/softfp\libg.a(lib_a-memset.o)
 .text          0x00000000        0x0 c:/program files (x86)/gnu tools arm embedded/4.9 2014q4/bin/../lib/gcc/arm-none-eabi/4.9.3/../../../../arm-none-eabi/lib/armv7e-m/softfp\libg.a(lib_a-sprintf.o)
 .data          0x00000000        0x0 c:/program files (x86)/gnu tools arm embedded/4.9 2014q4/bin/../lib/gcc/arm-none-eabi/4.9.3/../../../../arm-none-eabi/lib/armv7e-m/softfp\libg.a(lib_a-sprintf.o)
 .bss           0x00000000        0x0 c:/program files (x86)/gnu tools arm embedded/4.9 2014q4/bin/../lib/gcc/arm-none-eabi/4.9.3/../../../../arm-none-eabi/lib/armv7e-m/softfp\libg.a(lib_a-sprintf.o)
 .text._sprintf_r
                0x00000000       0x44 c:/program files (x86)/gnu tools arm embedded/4.9 2014q4/bin/../lib/gcc/arm-none-eabi/4.9.3/../../../../arm-none-eabi/lib/armv7e-m/softfp\libg.a(lib_a-sprintf.o)
 .text          0x00000000        0x0 c:/program files (x86)/gnu tools arm embedded/4.9 2014q4/bin/../lib/gcc/arm-none-eabi/4.9.3/../../../../arm-none-eabi/lib/armv7e-m/softfp\libg.a(lib_a-strcat.o)
 .data          0x00000000        0x0 c:/program files (x86)/gnu tools arm embedded/4.9 2014q4/bin/../lib/gcc/arm-none-eabi/4.9.3/../../../../arm-none-eabi/lib/armv7e-m/softfp\libg.a(lib_a-strcat.o)
 .bss           0x00000000        0x0 c:/program files (x86)/gnu tools arm embedded/4.9 2014q4/bin/../lib/gcc/arm-none-eabi/4.9.3/../../../../arm-none-eabi/lib/armv7e-m/softfp\libg.a(lib_a-strcat.o)
 .text          0x00000000        0x0 c:/program files (x86)/gnu tools arm embedded/4.9 2014q4/bin/../lib/gcc/arm-none-eabi/4.9.3/../../../../arm-none-eabi/lib/armv7e-m/softfp\libg.a(lib_a-strcpy.o)
 .data          0x00000000        0x0 c:/program files (x86)/gnu tools arm embedded/4.9 2014q4/bin/../lib/gcc/arm-none-eabi/4.9.3/../../../../arm-none-eabi/lib/armv7e-m/softfp\libg.a(lib_a-strcpy.o)
 .bss           0x00000000        0x0 c:/program files (x86)/gnu tools arm embedded/4.9 2014q4/bin/../lib/gcc/arm-none-eabi/4.9.3/../../../../arm-none-eabi/lib/armv7e-m/softfp\libg.a(lib_a-strcpy.o)
 .text          0x00000000        0x0 c:/program files (x86)/gnu tools arm embedded/4.9 2014q4/bin/../lib/gcc/arm-none-eabi/4.9.3/../../../../arm-none-eabi/lib/armv7e-m/softfp\libg.a(lib_a-svfprintf.o)
 .data          0x00000000        0x0 c:/program files (x86)/gnu tools arm embedded/4.9 2014q4/bin/../lib/gcc/arm-none-eabi/4.9.3/../../../../arm-none-eabi/lib/armv7e-m/softfp\libg.a(lib_a-svfprintf.o)
 .bss           0x00000000        0x0 c:/program files (x86)/gnu tools arm embedded/4.9 2014q4/bin/../lib/gcc/arm-none-eabi/4.9.3/../../../../arm-none-eabi/lib/armv7e-m/softfp\libg.a(lib_a-svfprintf.o)
 .text          0x00000000        0x0 c:/program files (x86)/gnu tools arm embedded/4.9 2014q4/bin/../lib/gcc/arm-none-eabi/4.9.3/../../../../arm-none-eabi/lib/armv7e-m/softfp\libg.a(lib_a-dtoa.o)
 .data          0x00000000        0x0 c:/program files (x86)/gnu tools arm embedded/4.9 2014q4/bin/../lib/gcc/arm-none-eabi/4.9.3/../../../../arm-none-eabi/lib/armv7e-m/softfp\libg.a(lib_a-dtoa.o)
 .bss           0x00000000        0x0 c:/program files (x86)/gnu tools arm embedded/4.9 2014q4/bin/../lib/gcc/arm-none-eabi/4.9.3/../../../../arm-none-eabi/lib/armv7e-m/softfp\libg.a(lib_a-dtoa.o)
 .text          0x00000000        0x0 c:/program files (x86)/gnu tools arm embedded/4.9 2014q4/bin/../lib/gcc/arm-none-eabi/4.9.3/../../../../arm-none-eabi/lib/armv7e-m/softfp\libg.a(lib_a-locale.o)
 .data          0x00000000        0x0 c:/program files (x86)/gnu tools arm embedded/4.9 2014q4/bin/../lib/gcc/arm-none-eabi/4.9.3/../../../../arm-none-eabi/lib/armv7e-m/softfp\libg.a(lib_a-locale.o)
 .bss           0x00000000        0x0 c:/program files (x86)/gnu tools arm embedded/4.9 2014q4/bin/../lib/gcc/arm-none-eabi/4.9.3/../../../../arm-none-eabi/lib/armv7e-m/softfp\libg.a(lib_a-locale.o)
 .text._setlocale_r
                0x00000000       0x44 c:/program files (x86)/gnu tools arm embedded/4.9 2014q4/bin/../lib/gcc/arm-none-eabi/4.9.3/../../../../arm-none-eabi/lib/armv7e-m/softfp\libg.a(lib_a-locale.o)
 .text.__locale_charset
                0x00000000        0x8 c:/program files (x86)/gnu tools arm embedded/4.9 2014q4/bin/../lib/gcc/arm-none-eabi/4.9.3/../../../../arm-none-eabi/lib/armv7e-m/softfp\libg.a(lib_a-locale.o)
 .text.__locale_mb_cur_max
                0x00000000        0xc c:/program files (x86)/gnu tools arm embedded/4.9 2014q4/bin/../lib/gcc/arm-none-eabi/4.9.3/../../../../arm-none-eabi/lib/armv7e-m/softfp\libg.a(lib_a-locale.o)
 .text.__locale_msgcharset
                0x00000000        0x8 c:/program files (x86)/gnu tools arm embedded/4.9 2014q4/bin/../lib/gcc/arm-none-eabi/4.9.3/../../../../arm-none-eabi/lib/armv7e-m/softfp\libg.a(lib_a-locale.o)
 .text.__locale_cjk_lang
                0x00000000        0x4 c:/program files (x86)/gnu tools arm embedded/4.9 2014q4/bin/../lib/gcc/arm-none-eabi/4.9.3/../../../../arm-none-eabi/lib/armv7e-m/softfp\libg.a(lib_a-locale.o)
 .text.setlocale
                0x00000000       0x10 c:/program files (x86)/gnu tools arm embedded/4.9 2014q4/bin/../lib/gcc/arm-none-eabi/4.9.3/../../../../arm-none-eabi/lib/armv7e-m/softfp\libg.a(lib_a-locale.o)
 .text.localeconv
                0x00000000        0x8 c:/program files (x86)/gnu tools arm embedded/4.9 2014q4/bin/../lib/gcc/arm-none-eabi/4.9.3/../../../../arm-none-eabi/lib/armv7e-m/softfp\libg.a(lib_a-locale.o)
 .data.lc_message_charset
                0x00000000       0x20 c:/program files (x86)/gnu tools arm embedded/4.9 2014q4/bin/../lib/gcc/arm-none-eabi/4.9.3/../../../../arm-none-eabi/lib/armv7e-m/softfp\libg.a(lib_a-locale.o)
 .bss._PathLocale
                0x00000000        0x4 c:/program files (x86)/gnu tools arm embedded/4.9 2014q4/bin/../lib/gcc/arm-none-eabi/4.9.3/../../../../arm-none-eabi/lib/armv7e-m/softfp\libg.a(lib_a-locale.o)
 .bss.__nlocale_changed
                0x00000000        0x4 c:/program files (x86)/gnu tools arm embedded/4.9 2014q4/bin/../lib/gcc/arm-none-eabi/4.9.3/../../../../arm-none-eabi/lib/armv7e-m/softfp\libg.a(lib_a-locale.o)
 .bss.__mlocale_changed
                0x00000000        0x4 c:/program files (x86)/gnu tools arm embedded/4.9 2014q4/bin/../lib/gcc/arm-none-eabi/4.9.3/../../../../arm-none-eabi/lib/armv7e-m/softfp\libg.a(lib_a-locale.o)
 .data.lc_ctype_charset
                0x00000000       0x20 c:/program files (x86)/gnu tools arm embedded/4.9 2014q4/bin/../lib/gcc/arm-none-eabi/4.9.3/../../../../arm-none-eabi/lib/armv7e-m/softfp\libg.a(lib_a-locale.o)
 .data.__mb_cur_max
                0x00000000        0x4 c:/program files (x86)/gnu tools arm embedded/4.9 2014q4/bin/../lib/gcc/arm-none-eabi/4.9.3/../../../../arm-none-eabi/lib/armv7e-m/softfp\libg.a(lib_a-locale.o)
 .text          0x00000000        0x0 c:/program files (x86)/gnu tools arm embedded/4.9 2014q4/bin/../lib/gcc/arm-none-eabi/4.9.3/../../../../arm-none-eabi/lib/armv7e-m/softfp\libg.a(lib_a-mallocr.o)
 .data          0x00000000        0x0 c:/program files (x86)/gnu tools arm embedded/4.9 2014q4/bin/../lib/gcc/arm-none-eabi/4.9.3/../../../../arm-none-eabi/lib/armv7e-m/softfp\libg.a(lib_a-mallocr.o)
 .bss           0x00000000        0x0 c:/program files (x86)/gnu tools arm embedded/4.9 2014q4/bin/../lib/gcc/arm-none-eabi/4.9.3/../../../../arm-none-eabi/lib/armv7e-m/softfp\libg.a(lib_a-mallocr.o)
 .text          0x00000000        0x0 c:/program files (x86)/gnu tools arm embedded/4.9 2014q4/bin/../lib/gcc/arm-none-eabi/4.9.3/../../../../arm-none-eabi/lib/armv7e-m/softfp\libg.a(lib_a-memchr.o)
 .data          0x00000000        0x0 c:/program files (x86)/gnu tools arm embedded/4.9 2014q4/bin/../lib/gcc/arm-none-eabi/4.9.3/../../../../arm-none-eabi/lib/armv7e-m/softfp\libg.a(lib_a-memchr.o)
 .bss           0x00000000        0x0 c:/program files (x86)/gnu tools arm embedded/4.9 2014q4/bin/../lib/gcc/arm-none-eabi/4.9.3/../../../../arm-none-eabi/lib/armv7e-m/softfp\libg.a(lib_a-memchr.o)
 .text          0x00000000        0x0 c:/program files (x86)/gnu tools arm embedded/4.9 2014q4/bin/../lib/gcc/arm-none-eabi/4.9.3/../../../../arm-none-eabi/lib/armv7e-m/softfp\libg.a(lib_a-mlock.o)
 .data          0x00000000        0x0 c:/program files (x86)/gnu tools arm embedded/4.9 2014q4/bin/../lib/gcc/arm-none-eabi/4.9.3/../../../../arm-none-eabi/lib/armv7e-m/softfp\libg.a(lib_a-mlock.o)
 .bss           0x00000000        0x0 c:/program files (x86)/gnu tools arm embedded/4.9 2014q4/bin/../lib/gcc/arm-none-eabi/4.9.3/../../../../arm-none-eabi/lib/armv7e-m/softfp\libg.a(lib_a-mlock.o)
 .text          0x00000000        0x0 c:/program files (x86)/gnu tools arm embedded/4.9 2014q4/bin/../lib/gcc/arm-none-eabi/4.9.3/../../../../arm-none-eabi/lib/armv7e-m/softfp\libg.a(lib_a-mprec.o)
 .data          0x00000000        0x0 c:/program files (x86)/gnu tools arm embedded/4.9 2014q4/bin/../lib/gcc/arm-none-eabi/4.9.3/../../../../arm-none-eabi/lib/armv7e-m/softfp\libg.a(lib_a-mprec.o)
 .bss           0x00000000        0x0 c:/program files (x86)/gnu tools arm embedded/4.9 2014q4/bin/../lib/gcc/arm-none-eabi/4.9.3/../../../../arm-none-eabi/lib/armv7e-m/softfp\libg.a(lib_a-mprec.o)
 .text.__s2b    0x00000000       0x98 c:/program files (x86)/gnu tools arm embedded/4.9 2014q4/bin/../lib/gcc/arm-none-eabi/4.9.3/../../../../arm-none-eabi/lib/armv7e-m/softfp\libg.a(lib_a-mprec.o)
 .text.__ulp    0x00000000       0x40 c:/program files (x86)/gnu tools arm embedded/4.9 2014q4/bin/../lib/gcc/arm-none-eabi/4.9.3/../../../../arm-none-eabi/lib/armv7e-m/softfp\libg.a(lib_a-mprec.o)
 .text.__b2d    0x00000000       0xc4 c:/program files (x86)/gnu tools arm embedded/4.9 2014q4/bin/../lib/gcc/arm-none-eabi/4.9.3/../../../../arm-none-eabi/lib/armv7e-m/softfp\libg.a(lib_a-mprec.o)
 .text.__ratio  0x00000000       0x58 c:/program files (x86)/gnu tools arm embedded/4.9 2014q4/bin/../lib/gcc/arm-none-eabi/4.9.3/../../../../arm-none-eabi/lib/armv7e-m/softfp\libg.a(lib_a-mprec.o)
 .text._mprec_log10
                0x00000000       0x34 c:/program files (x86)/gnu tools arm embedded/4.9 2014q4/bin/../lib/gcc/arm-none-eabi/4.9.3/../../../../arm-none-eabi/lib/armv7e-m/softfp\libg.a(lib_a-mprec.o)
 .text.__copybits
                0x00000000       0x48 c:/program files (x86)/gnu tools arm embedded/4.9 2014q4/bin/../lib/gcc/arm-none-eabi/4.9.3/../../../../arm-none-eabi/lib/armv7e-m/softfp\libg.a(lib_a-mprec.o)
 .text.__any_on
                0x00000000       0x60 c:/program files (x86)/gnu tools arm embedded/4.9 2014q4/bin/../lib/gcc/arm-none-eabi/4.9.3/../../../../arm-none-eabi/lib/armv7e-m/softfp\libg.a(lib_a-mprec.o)
 .rodata.__mprec_tinytens
                0x00000000       0x28 c:/program files (x86)/gnu tools arm embedded/4.9 2014q4/bin/../lib/gcc/arm-none-eabi/4.9.3/../../../../arm-none-eabi/lib/armv7e-m/softfp\libg.a(lib_a-mprec.o)
 .text          0x00000000        0x0 c:/program files (x86)/gnu tools arm embedded/4.9 2014q4/bin/../lib/gcc/arm-none-eabi/4.9.3/../../../../arm-none-eabi/lib/armv7e-m/softfp\libg.a(lib_a-sbrkr.o)
 .data          0x00000000        0x0 c:/program files (x86)/gnu tools arm embedded/4.9 2014q4/bin/../lib/gcc/arm-none-eabi/4.9.3/../../../../arm-none-eabi/lib/armv7e-m/softfp\libg.a(lib_a-sbrkr.o)
 .bss           0x00000000        0x0 c:/program files (x86)/gnu tools arm embedded/4.9 2014q4/bin/../lib/gcc/arm-none-eabi/4.9.3/../../../../arm-none-eabi/lib/armv7e-m/softfp\libg.a(lib_a-sbrkr.o)
 .text          0x00000000      0x2e0 c:/program files (x86)/gnu tools arm embedded/4.9 2014q4/bin/../lib/gcc/arm-none-eabi/4.9.3/../../../../arm-none-eabi/lib/armv7e-m/softfp\libg.a(lib_a-strcmp.o)
 .data          0x00000000        0x0 c:/program files (x86)/gnu tools arm embedded/4.9 2014q4/bin/../lib/gcc/arm-none-eabi/4.9.3/../../../../arm-none-eabi/lib/armv7e-m/softfp\libg.a(lib_a-strcmp.o)
 .bss           0x00000000        0x0 c:/program files (x86)/gnu tools arm embedded/4.9 2014q4/bin/../lib/gcc/arm-none-eabi/4.9.3/../../../../arm-none-eabi/lib/armv7e-m/softfp\libg.a(lib_a-strcmp.o)
 .eh_frame      0x00000000       0x70 c:/program files (x86)/gnu tools arm embedded/4.9 2014q4/bin/../lib/gcc/arm-none-eabi/4.9.3/../../../../arm-none-eabi/lib/armv7e-m/softfp\libg.a(lib_a-strcmp.o)
 .ARM.attributes
                0x00000000       0x20 c:/program files (x86)/gnu tools arm embedded/4.9 2014q4/bin/../lib/gcc/arm-none-eabi/4.9.3/../../../../arm-none-eabi/lib/armv7e-m/softfp\libg.a(lib_a-strcmp.o)
 .text          0x00000000        0x0 c:/program files (x86)/gnu tools arm embedded/4.9 2014q4/bin/../lib/gcc/arm-none-eabi/4.9.3/../../../../arm-none-eabi/lib/armv7e-m/softfp\libg.a(lib_a-strlen.o)
 .data          0x00000000        0x0 c:/program files (x86)/gnu tools arm embedded/4.9 2014q4/bin/../lib/gcc/arm-none-eabi/4.9.3/../../../../arm-none-eabi/lib/armv7e-m/softfp\libg.a(lib_a-strlen.o)
 .bss           0x00000000        0x0 c:/program files (x86)/gnu tools arm embedded/4.9 2014q4/bin/../lib/gcc/arm-none-eabi/4.9.3/../../../../arm-none-eabi/lib/armv7e-m/softfp\libg.a(lib_a-strlen.o)
 .text          0x00000000        0x0 c:/program files (x86)/gnu tools arm embedded/4.9 2014q4/bin/../lib/gcc/arm-none-eabi/4.9.3/../../../../arm-none-eabi/lib/armv7e-m/softfp\libg.a(lib_a-svfiprintf.o)
 .data          0x00000000        0x0 c:/program files (x86)/gnu tools arm embedded/4.9 2014q4/bin/../lib/gcc/arm-none-eabi/4.9.3/../../../../arm-none-eabi/lib/armv7e-m/softfp\libg.a(lib_a-svfiprintf.o)
 .bss           0x00000000        0x0 c:/program files (x86)/gnu tools arm embedded/4.9 2014q4/bin/../lib/gcc/arm-none-eabi/4.9.3/../../../../arm-none-eabi/lib/armv7e-m/softfp\libg.a(lib_a-svfiprintf.o)
 .text._svfiprintf_r
                0x00000000      0xa94 c:/program files (x86)/gnu tools arm embedded/4.9 2014q4/bin/../lib/gcc/arm-none-eabi/4.9.3/../../../../arm-none-eabi/lib/armv7e-m/softfp\libg.a(lib_a-svfiprintf.o)
 .rodata.blanks.6738
                0x00000000       0x10 c:/program files (x86)/gnu tools arm embedded/4.9 2014q4/bin/../lib/gcc/arm-none-eabi/4.9.3/../../../../arm-none-eabi/lib/armv7e-m/softfp\libg.a(lib_a-svfiprintf.o)
 .rodata.str1.4
                0x00000000       0x30 c:/program files (x86)/gnu tools arm embedded/4.9 2014q4/bin/../lib/gcc/arm-none-eabi/4.9.3/../../../../arm-none-eabi/lib/armv7e-m/softfp\libg.a(lib_a-svfiprintf.o)
 .rodata.zeroes.6739
                0x00000000       0x10 c:/program files (x86)/gnu tools arm embedded/4.9 2014q4/bin/../lib/gcc/arm-none-eabi/4.9.3/../../../../arm-none-eabi/lib/armv7e-m/softfp\libg.a(lib_a-svfiprintf.o)
 .text          0x00000000        0x0 c:/program files (x86)/gnu tools arm embedded/4.9 2014q4/bin/../lib/gcc/arm-none-eabi/4.9.3/../../../../arm-none-eabi/lib/armv7e-m/softfp\libg.a(lib_a-callocr.o)
 .data          0x00000000        0x0 c:/program files (x86)/gnu tools arm embedded/4.9 2014q4/bin/../lib/gcc/arm-none-eabi/4.9.3/../../../../arm-none-eabi/lib/armv7e-m/softfp\libg.a(lib_a-callocr.o)
 .bss           0x00000000        0x0 c:/program files (x86)/gnu tools arm embedded/4.9 2014q4/bin/../lib/gcc/arm-none-eabi/4.9.3/../../../../arm-none-eabi/lib/armv7e-m/softfp\libg.a(lib_a-callocr.o)
 .text          0x00000000        0x0 c:/program files (x86)/gnu tools arm embedded/4.9 2014q4/bin/../lib/gcc/arm-none-eabi/4.9.3/../../../../arm-none-eabi/lib/armv7e-m/softfp\libg.a(lib_a-freer.o)
 .data          0x00000000        0x0 c:/program files (x86)/gnu tools arm embedded/4.9 2014q4/bin/../lib/gcc/arm-none-eabi/4.9.3/../../../../arm-none-eabi/lib/armv7e-m/softfp\libg.a(lib_a-freer.o)
 .bss           0x00000000        0x0 c:/program files (x86)/gnu tools arm embedded/4.9 2014q4/bin/../lib/gcc/arm-none-eabi/4.9.3/../../../../arm-none-eabi/lib/armv7e-m/softfp\libg.a(lib_a-freer.o)
 .text          0x00000000        0x0 c:/program files (x86)/gnu tools arm embedded/4.9 2014q4/bin/../lib/gcc/arm-none-eabi/4.9.3/../../../../arm-none-eabi/lib/armv7e-m/softfp\libg.a(lib_a-memmove.o)
 .data          0x00000000        0x0 c:/program files (x86)/gnu tools arm embedded/4.9 2014q4/bin/../lib/gcc/arm-none-eabi/4.9.3/../../../../arm-none-eabi/lib/armv7e-m/softfp\libg.a(lib_a-memmove.o)
 .bss           0x00000000        0x0 c:/program files (x86)/gnu tools arm embedded/4.9 2014q4/bin/../lib/gcc/arm-none-eabi/4.9.3/../../../../arm-none-eabi/lib/armv7e-m/softfp\libg.a(lib_a-memmove.o)
 .text          0x00000000        0x0 c:/program files (x86)/gnu tools arm embedded/4.9 2014q4/bin/../lib/gcc/arm-none-eabi/4.9.3/../../../../arm-none-eabi/lib/armv7e-m/softfp\libg.a(lib_a-reallocr.o)
 .data          0x00000000        0x0 c:/program files (x86)/gnu tools arm embedded/4.9 2014q4/bin/../lib/gcc/arm-none-eabi/4.9.3/../../../../arm-none-eabi/lib/armv7e-m/softfp\libg.a(lib_a-reallocr.o)
 .bss           0x00000000        0x0 c:/program files (x86)/gnu tools arm embedded/4.9 2014q4/bin/../lib/gcc/arm-none-eabi/4.9.3/../../../../arm-none-eabi/lib/armv7e-m/softfp\libg.a(lib_a-reallocr.o)
 .text          0x00000000        0x0 c:/program files (x86)/gnu tools arm embedded/4.9 2014q4/bin/../lib/gcc/arm-none-eabi/4.9.3/../../../../arm-none-eabi/lib/armv7e-m/softfp\libg.a(lib_a-reent.o)
 .data          0x00000000        0x0 c:/program files (x86)/gnu tools arm embedded/4.9 2014q4/bin/../lib/gcc/arm-none-eabi/4.9.3/../../../../arm-none-eabi/lib/armv7e-m/softfp\libg.a(lib_a-reent.o)
 .bss           0x00000000        0x0 c:/program files (x86)/gnu tools arm embedded/4.9 2014q4/bin/../lib/gcc/arm-none-eabi/4.9.3/../../../../arm-none-eabi/lib/armv7e-m/softfp\libg.a(lib_a-reent.o)
 .text.cleanup_glue
                0x00000000       0x1c c:/program files (x86)/gnu tools arm embedded/4.9 2014q4/bin/../lib/gcc/arm-none-eabi/4.9.3/../../../../arm-none-eabi/lib/armv7e-m/softfp\libg.a(lib_a-reent.o)
 .text._reclaim_reent
                0x00000000       0x88 c:/program files (x86)/gnu tools arm embedded/4.9 2014q4/bin/../lib/gcc/arm-none-eabi/4.9.3/../../../../arm-none-eabi/lib/armv7e-m/softfp\libg.a(lib_a-reent.o)
 .data          0x00000000        0x0 c:/program files (x86)/gnu tools arm embedded/4.9 2014q4/bin/../lib/gcc/arm-none-eabi/4.9.3/armv7e-m/softfp\libgcc.a(_aeabi_uldivmod.o)
 .bss           0x00000000        0x0 c:/program files (x86)/gnu tools arm embedded/4.9 2014q4/bin/../lib/gcc/arm-none-eabi/4.9.3/armv7e-m/softfp\libgcc.a(_aeabi_uldivmod.o)
 .data          0x00000000        0x0 c:/program files (x86)/gnu tools arm embedded/4.9 2014q4/bin/../lib/gcc/arm-none-eabi/4.9.3/armv7e-m/softfp\libgcc.a(bpabi.o)
 .bss           0x00000000        0x0 c:/program files (x86)/gnu tools arm embedded/4.9 2014q4/bin/../lib/gcc/arm-none-eabi/4.9.3/armv7e-m/softfp\libgcc.a(bpabi.o)
 .data          0x00000000        0x0 c:/program files (x86)/gnu tools arm embedded/4.9 2014q4/bin/../lib/gcc/arm-none-eabi/4.9.3/armv7e-m/softfp\libgcc.a(_dvmd_tls.o)
 .bss           0x00000000        0x0 c:/program files (x86)/gnu tools arm embedded/4.9 2014q4/bin/../lib/gcc/arm-none-eabi/4.9.3/armv7e-m/softfp\libgcc.a(_dvmd_tls.o)
 .data          0x00000000        0x0 c:/program files (x86)/gnu tools arm embedded/4.9 2014q4/bin/../lib/gcc/arm-none-eabi/4.9.3/armv7e-m/softfp\libgcc.a(_divdi3.o)
 .bss           0x00000000        0x0 c:/program files (x86)/gnu tools arm embedded/4.9 2014q4/bin/../lib/gcc/arm-none-eabi/4.9.3/armv7e-m/softfp\libgcc.a(_divdi3.o)
 .ARM.extab     0x00000000        0x0 c:/program files (x86)/gnu tools arm embedded/4.9 2014q4/bin/../lib/gcc/arm-none-eabi/4.9.3/armv7e-m/softfp\libgcc.a(_divdi3.o)
 .data          0x00000000        0x0 c:/program files (x86)/gnu tools arm embedded/4.9 2014q4/bin/../lib/gcc/arm-none-eabi/4.9.3/armv7e-m/softfp\libgcc.a(_udivdi3.o)
 .bss           0x00000000        0x0 c:/program files (x86)/gnu tools arm embedded/4.9 2014q4/bin/../lib/gcc/arm-none-eabi/4.9.3/armv7e-m/softfp\libgcc.a(_udivdi3.o)
 .ARM.extab     0x00000000        0x0 c:/program files (x86)/gnu tools arm embedded/4.9 2014q4/bin/../lib/gcc/arm-none-eabi/4.9.3/armv7e-m/softfp\libgcc.a(_udivdi3.o)

Memory Configuration

Name             Origin             Length             Attributes
rom              0x08000000         0x00100000         xr
ram              0x20000000         0x00020000         xrw
ram1             0x10000000         0x00010000         xrw
*default*        0x00000000         0xffffffff

Linker script and memory map

                0x20020000                _eram = 0x20020000

.text           0x08000000    0x19714
 *(.isr_vector)
 .isr_vector    0x08000000      0x188 ..\obj\startup_stm32f4xx.o
                0x08000000                g_pfnVectors
 *(.text*)
 .text.i2c_MS561101BA_reset
                0x08000188       0x10 ..\obj\MS5611.o
                0x08000188                i2c_MS561101BA_reset
 .text.i2c_MS561101BA_readCalibration
                0x08000198       0x74 ..\obj\MS5611.o
                0x08000198                i2c_MS561101BA_readCalibration
 .text.Baro_init
                0x0800020c       0x1c ..\obj\MS5611.o
                0x0800020c                Baro_init
 .text.i2c_MS561101BA_UT_Start
                0x08000228       0x2c ..\obj\MS5611.o
                0x08000228                i2c_MS561101BA_UT_Start
 .text.i2c_MS561101BA_UP_Start
                0x08000254       0x2c ..\obj\MS5611.o
                0x08000254                i2c_MS561101BA_UP_Start
 .text.i2c_MS561101BA_UP_Read
                0x08000280       0x48 ..\obj\MS5611.o
                0x08000280                i2c_MS561101BA_UP_Read
 .text.i2c_MS561101BA_UT_Read
                0x080002c8       0x48 ..\obj\MS5611.o
                0x080002c8                i2c_MS561101BA_UT_Read
 .text.i2c_MS561101BA_Calculate
                0x08000310      0x16c ..\obj\MS5611.o
                0x08000310                i2c_MS561101BA_Calculate
 *fill*         0x0800047c        0x4 
 .text.Baro_update
                0x08000480      0x198 ..\obj\MS5611.o
                0x08000480                Baro_update
 .text.MS561101BA_I2C_ADDRWrite
                0x08000618      0x10c ..\obj\MS5611.o
                0x08000618                MS561101BA_I2C_ADDRWrite
 .text.MS561101BA_I2C_BufferRead
                0x08000724      0x20c ..\obj\MS5611.o
                0x08000724                MS561101BA_I2C_BufferRead
 .text.innerloop
                0x08000930       0xe0 ..\obj\loops.o
                0x08000930                innerloop
 .text.set_target_heading
                0x08000a10       0x48 ..\obj\loops.o
                0x08000a10                set_target_heading
 .text.heading_hold
                0x08000a58       0xe8 ..\obj\loops.o
                0x08000a58                heading_hold
 .text.roll_hold
                0x08000b40      0x118 ..\obj\loops.o
                0x08000b40                roll_hold
 .text.set_excitation
                0x08000c58       0x98 ..\obj\loops.o
                0x08000c58                set_excitation
 .text.trigger_excitation
                0x08000cf0       0x2c ..\obj\loops.o
                0x08000cf0                trigger_excitation
 .text.carry_out_excitation
                0x08000d1c       0xfc ..\obj\loops.o
                0x08000d1c                carry_out_excitation
 .text.SYSCFG_EXTILineConfig
                0x08000e18       0x84 ..\obj\stm32f4xx_syscfg.o
                0x08000e18                SYSCFG_EXTILineConfig
 .text.USB_OTG_WritePacket
                0x08000e9c       0x78 ..\obj\usb_core.o
                0x08000e9c                USB_OTG_WritePacket
 .text.USB_OTG_ReadPacket
                0x08000f14       0x58 ..\obj\usb_core.o
                0x08000f14                USB_OTG_ReadPacket
 .text.USB_OTG_FlushTxFifo
                0x08000f6c       0x7c ..\obj\usb_core.o
                0x08000f6c                USB_OTG_FlushTxFifo
 .text.USB_OTG_GetMode
                0x08000fe8       0x20 ..\obj\usb_core.o
                0x08000fe8                USB_OTG_GetMode
 .text.USB_OTG_IsDeviceMode
                0x08001008       0x24 ..\obj\usb_core.o
                0x08001008                USB_OTG_IsDeviceMode
 .text.USB_OTG_ReadCoreItr
                0x0800102c       0x30 ..\obj\usb_core.o
                0x0800102c                USB_OTG_ReadCoreItr
 .text.USB_OTG_GetDeviceSpeed
                0x0800105c       0x48 ..\obj\usb_core.o
                0x0800105c                USB_OTG_GetDeviceSpeed
 .text.USB_OTG_EP0Activate
                0x080010a4       0x78 ..\obj\usb_core.o
                0x080010a4                USB_OTG_EP0Activate
 .text.USB_OTG_EPActivate
                0x0800111c       0xdc ..\obj\usb_core.o
                0x0800111c                USB_OTG_EPActivate
 .text.USB_OTG_EPStartXfer
                0x080011f8      0x280 ..\obj\usb_core.o
                0x080011f8                USB_OTG_EPStartXfer
 .text.USB_OTG_EP0StartXfer
                0x08001478      0x1d4 ..\obj\usb_core.o
                0x08001478                USB_OTG_EP0StartXfer
 .text.USB_OTG_EPSetStall
                0x0800164c       0x88 ..\obj\usb_core.o
                0x0800164c                USB_OTG_EPSetStall
 .text.USB_OTG_EPClearStall
                0x080016d4       0x78 ..\obj\usb_core.o
                0x080016d4                USB_OTG_EPClearStall
 .text.USB_OTG_ReadDevAllOutEp_itr
                0x0800174c       0x2c ..\obj\usb_core.o
                0x0800174c                USB_OTG_ReadDevAllOutEp_itr
 .text.USB_OTG_ReadDevOutEP_itr
                0x08001778       0x38 ..\obj\usb_core.o
                0x08001778                USB_OTG_ReadDevOutEP_itr
 .text.USB_OTG_ReadDevAllInEPItr
                0x080017b0       0x2c ..\obj\usb_core.o
                0x080017b0                USB_OTG_ReadDevAllInEPItr
 .text.USB_OTG_EP0_OutStart
                0x080017dc       0x70 ..\obj\usb_core.o
                0x080017dc                USB_OTG_EP0_OutStart
 .text.Normalize
                0x0800184c      0x32c ..\obj\DCM.o
                0x0800184c                Normalize
 .text.Drift_correction
                0x08001b78      0x290 ..\obj\DCM.o
                0x08001b78                Drift_correction
 .text.Accel_adjust
                0x08001e08       0xe8 ..\obj\DCM.o
                0x08001e08                Accel_adjust
 .text.Matrix_update
                0x08001ef0      0x230 ..\obj\DCM.o
                0x08001ef0                Matrix_update
 .text.Euler_angles
                0x08002120       0xb4 ..\obj\DCM.o
                0x08002120                Euler_angles
 .text.delay    0x080021d4       0x34 ..\obj\delay.o
                0x080021d4                delay
 .text.SDIO_DeInit
                0x08002208       0x1c ..\obj\stm32f4xx_sdio.o
                0x08002208                SDIO_DeInit
 .text.SDIO_Init
                0x08002224       0x5c ..\obj\stm32f4xx_sdio.o
                0x08002224                SDIO_Init
 .text.SDIO_ClockCmd
                0x08002280       0x20 ..\obj\stm32f4xx_sdio.o
                0x08002280                SDIO_ClockCmd
 .text.SDIO_SetPowerState
                0x080022a0       0x1c ..\obj\stm32f4xx_sdio.o
                0x080022a0                SDIO_SetPowerState
 .text.SDIO_GetPowerState
                0x080022bc       0x1c ..\obj\stm32f4xx_sdio.o
                0x080022bc                SDIO_GetPowerState
 .text.SDIO_SendCommand
                0x080022d8       0x58 ..\obj\stm32f4xx_sdio.o
                0x080022d8                SDIO_SendCommand
 .text.SDIO_GetCommandResponse
                0x08002330       0x18 ..\obj\stm32f4xx_sdio.o
                0x08002330                SDIO_GetCommandResponse
 .text.SDIO_GetResponse
                0x08002348       0x28 ..\obj\stm32f4xx_sdio.o
                0x08002348                SDIO_GetResponse
 .text.SDIO_DataConfig
                0x08002370       0x5c ..\obj\stm32f4xx_sdio.o
                0x08002370                SDIO_DataConfig
 .text.SDIO_ReadData
                0x080023cc       0x18 ..\obj\stm32f4xx_sdio.o
                0x080023cc                SDIO_ReadData
 .text.SDIO_DMACmd
                0x080023e4       0x20 ..\obj\stm32f4xx_sdio.o
                0x080023e4                SDIO_DMACmd
 .text.SDIO_ITConfig
                0x08002404       0x3c ..\obj\stm32f4xx_sdio.o
                0x08002404                SDIO_ITConfig
 .text.SDIO_GetFlagStatus
                0x08002440       0x34 ..\obj\stm32f4xx_sdio.o
                0x08002440                SDIO_GetFlagStatus
 .text.SDIO_ClearFlag
                0x08002474       0x1c ..\obj\stm32f4xx_sdio.o
                0x08002474                SDIO_ClearFlag
 .text.SDIO_GetITStatus
                0x08002490       0x34 ..\obj\stm32f4xx_sdio.o
                0x08002490                SDIO_GetITStatus
 .text.SDIO_ClearITPendingBit
                0x080024c4       0x1c ..\obj\stm32f4xx_sdio.o
                0x080024c4                SDIO_ClearITPendingBit
 .text.store_offsets
                0x080024e0      0x150 ..\obj\flash.o
                0x080024e0                store_offsets
 .text.restore_offsets
                0x08002630      0x124 ..\obj\flash.o
                0x08002630                restore_offsets
 *fill*         0x08002754        0x4 
 .text.update_battery
                0x08002758      0x140 ..\obj\power_propulsion.o
                0x08002758                update_battery
 .text.update_RPM
                0x08002898       0x80 ..\obj\power_propulsion.o
                0x08002898                update_RPM
 .text.USART_Init
                0x08002918      0x178 ..\obj\stm32f4xx_usart.o
                0x08002918                USART_Init
 .text.USART_Cmd
                0x08002a90       0x40 ..\obj\stm32f4xx_usart.o
                0x08002a90                USART_Cmd
 .text.USART_SendData
                0x08002ad0       0x24 ..\obj\stm32f4xx_usart.o
                0x08002ad0                USART_SendData
 .text.USART_ReceiveData
                0x08002af4       0x20 ..\obj\stm32f4xx_usart.o
                0x08002af4                USART_ReceiveData
 .text.USART_ITConfig
                0x08002b14       0x90 ..\obj\stm32f4xx_usart.o
                0x08002b14                USART_ITConfig
 .text.USART_GetITStatus
                0x08002ba4       0xb8 ..\obj\stm32f4xx_usart.o
                0x08002ba4                USART_GetITStatus
 .text.HMC5883L_Initialize
                0x08002c5c       0x38 ..\obj\HMC5883L.o
                0x08002c5c                HMC5883L_Initialize
 .text.HMC5883L_I2C_ByteWrite
                0x08002c94       0xac ..\obj\HMC5883L.o
                0x08002c94                HMC5883L_I2C_ByteWrite
 .text.SD_Init  0x08002d40       0xb4 ..\obj\stm32f4_discovery_sdio_sd.o
                0x08002d40                SD_Init
 .text.SD_GetStatus
                0x08002df4       0x30 ..\obj\stm32f4_discovery_sdio_sd.o
                0x08002df4                SD_GetStatus
 .text.SD_GetState
                0x08002e24       0x40 ..\obj\stm32f4_discovery_sdio_sd.o
                0x08002e24                SD_GetState
 .text.SD_Detect
                0x08002e64       0x1c ..\obj\stm32f4_discovery_sdio_sd.o
                0x08002e64                SD_Detect
 .text.SD_PowerON
                0x08002e80      0x22c ..\obj\stm32f4_discovery_sdio_sd.o
                0x08002e80                SD_PowerON
 .text.SD_InitializeCards
                0x080030ac      0x18c ..\obj\stm32f4_discovery_sdio_sd.o
                0x080030ac                SD_InitializeCards
 .text.SD_GetCardInfo
                0x08003238      0x5b8 ..\obj\stm32f4_discovery_sdio_sd.o
                0x08003238                SD_GetCardInfo
 .text.SD_EnableWideBusOperation
                0x080037f0       0xd8 ..\obj\stm32f4_discovery_sdio_sd.o
                0x080037f0                SD_EnableWideBusOperation
 .text.SD_SelectDeselect
                0x080038c8       0x4c ..\obj\stm32f4_discovery_sdio_sd.o
                0x080038c8                SD_SelectDeselect
 .text.SD_ReadMultiBlocksFIXED
                0x08003914      0x130 ..\obj\stm32f4_discovery_sdio_sd.o
                0x08003914                SD_ReadMultiBlocksFIXED
 .text.SD_WaitReadOperation
                0x08003a44       0xb8 ..\obj\stm32f4_discovery_sdio_sd.o
                0x08003a44                SD_WaitReadOperation
 .text.SD_WriteMultiBlocksFIXED
                0x08003afc      0x1ac ..\obj\stm32f4_discovery_sdio_sd.o
                0x08003afc                SD_WriteMultiBlocksFIXED
 .text.SD_WaitWriteOperation
                0x08003ca8       0xb8 ..\obj\stm32f4_discovery_sdio_sd.o
                0x08003ca8                SD_WaitWriteOperation
 .text.SD_StopTransfer
                0x08003d60       0x48 ..\obj\stm32f4_discovery_sdio_sd.o
                0x08003d60                SD_StopTransfer
 .text.SD_SendStatus
                0x08003da8       0x78 ..\obj\stm32f4_discovery_sdio_sd.o
                0x08003da8                SD_SendStatus
 .text.SD_ProcessIRQSrc
                0x08003e20       0xc8 ..\obj\stm32f4_discovery_sdio_sd.o
                0x08003e20                SD_ProcessIRQSrc
 .text.CmdError
                0x08003ee8       0x4c ..\obj\stm32f4_discovery_sdio_sd.o
 .text.CmdResp7Error
                0x08003f34       0x78 ..\obj\stm32f4_discovery_sdio_sd.o
 .text.CmdResp1Error
                0x08003fac      0x1a4 ..\obj\stm32f4_discovery_sdio_sd.o
 .text.CmdResp3Error
                0x08004150       0x50 ..\obj\stm32f4_discovery_sdio_sd.o
 .text.CmdResp2Error
                0x080041a0       0x68 ..\obj\stm32f4_discovery_sdio_sd.o
 .text.CmdResp6Error
                0x08004208       0xd0 ..\obj\stm32f4_discovery_sdio_sd.o
 .text.SDEnWideBus
                0x080042d8      0x180 ..\obj\stm32f4_discovery_sdio_sd.o
 .text.FindSCR  0x08004458      0x204 ..\obj\stm32f4_discovery_sdio_sd.o
 .text.crc_accumulate
                0x0800465c       0x60 ..\obj\packets.o
 .text.crc_init
                0x080046bc       0x1c ..\obj\packets.o
 .text.crc_calculate
                0x080046d8       0x40 ..\obj\packets.o
 .text.crc_accumulate_buffer
                0x08004718       0x34 ..\obj\packets.o
 .text.mavlink_get_channel_status
                0x0800474c       0x28 ..\obj\packets.o
 .text._mav_finalize_message_chan_send
                0x08004774       0xc8 ..\obj\packets.o
 .text._mavlink_send_uart
                0x0800483c       0x24 ..\obj\packets.o
 .text.update_variables
                0x08004860      0x290 ..\obj\packets.o
                0x08004860                update_variables
 .text.send_attitude
                0x08004af0       0x20 ..\obj\packets.o
                0x08004af0                send_attitude
 .text.send_attitude_RAW
                0x08004b10       0x20 ..\obj\packets.o
                0x08004b10                send_attitude_RAW
 .text.send_press_temp
                0x08004b30       0x20 ..\obj\packets.o
                0x08004b30                send_press_temp
 .text.send_defections
                0x08004b50        0xc ..\obj\packets.o
                0x08004b50                send_defections
 .text.send_gps_data
                0x08004b5c       0x20 ..\obj\packets.o
                0x08004b5c                send_gps_data
 .text.send_power_propulsion
                0x08004b7c       0x20 ..\obj\packets.o
                0x08004b7c                send_power_propulsion
 .text.send_status
                0x08004b9c       0x74 ..\obj\packets.o
                0x08004b9c                send_status
 .text.send_firmware_version
                0x08004c10       0x20 ..\obj\packets.o
                0x08004c10                send_firmware_version
 .text.send_message
                0x08004c30       0x20 ..\obj\packets.o
                0x08004c30                send_message
 .text.update_sticks
                0x08004c50       0xa8 ..\obj\RC.o
                0x08004c50                update_sticks
 .text.set_trims
                0x08004cf8       0x40 ..\obj\RC.o
                0x08004cf8                set_trims
 .text.disk_initialize
                0x08004d38       0x38 ..\obj\diskio.o
                0x08004d38                disk_initialize
 .text.disk_status
                0x08004d70       0x2c ..\obj\diskio.o
                0x08004d70                disk_status
 .text.disk_read
                0x08004d9c      0x120 ..\obj\diskio.o
                0x08004d9c                disk_read
 .text.disk_write
                0x08004ebc      0x120 ..\obj\diskio.o
                0x08004ebc                disk_write
 .text.disk_ioctl
                0x08004fdc       0x20 ..\obj\diskio.o
                0x08004fdc                disk_ioctl
 .text.get_fattime
                0x08004ffc       0x10 ..\obj\diskio.o
                0x08004ffc                get_fattime
 .text.Default_Reset_Handler
                0x0800500c       0x68 ..\obj\startup_stm32f4xx.o
                0x0800500c                Default_Reset_Handler
                0x0800500c                Reset_Handler
 .text.Default_Handler
                0x08005074        0x8 ..\obj\startup_stm32f4xx.o
                0x08005074                RTC_Alarm_IRQHandler
                0x08005074                HASH_RNG_IRQHandler
                0x08005074                EXTI2_IRQHandler
                0x08005074                TIM8_CC_IRQHandler
                0x08005074                TIM1_CC_IRQHandler
                0x08005074                DMA2_Stream5_IRQHandler
                0x08005074                DMA1_Stream5_IRQHandler
                0x08005074                PVD_IRQHandler
                0x08005074                TAMP_STAMP_IRQHandler
                0x08005074                CAN2_RX1_IRQHandler
                0x08005074                EXTI3_IRQHandler
                0x08005074                TIM8_TRG_COM_TIM14_IRQHandler
                0x08005074                TIM1_UP_TIM10_IRQHandler
                0x08005074                TIM8_UP_TIM13_IRQHandler
                0x08005074                I2C3_ER_IRQHandler
                0x08005074                EXTI0_IRQHandler
                0x08005074                I2C2_EV_IRQHandler
                0x08005074                DMA1_Stream2_IRQHandler
                0x08005074                CAN1_RX0_IRQHandler
                0x08005074                FPU_IRQHandler
                0x08005074                OTG_HS_WKUP_IRQHandler
                0x08005074                CAN2_SCE_IRQHandler
                0x08005074                DMA2_Stream2_IRQHandler
                0x08005074                SPI1_IRQHandler
                0x08005074                TIM6_DAC_IRQHandler
                0x08005074                TIM1_BRK_TIM9_IRQHandler
                0x08005074                DCMI_IRQHandler
                0x08005074                CAN2_RX0_IRQHandler
                0x08005074                DMA2_Stream3_IRQHandler
                0x08005074                USART6_IRQHandler
                0x08005074                CRYP_IRQHandler
                0x08005074                CAN1_RX1_IRQHandler
                0x08005074                UART5_IRQHandler
                0x08005074                DMA2_Stream0_IRQHandler
                0x08005074                TIM4_IRQHandler
                0x08005074                I2C1_EV_IRQHandler
                0x08005074                DMA1_Stream6_IRQHandler
                0x08005074                DMA1_Stream1_IRQHandler
                0x08005074                UART4_IRQHandler
                0x08005074                TIM3_IRQHandler
                0x08005074                RCC_IRQHandler
                0x08005074                TIM8_BRK_TIM12_IRQHandler
                0x08005074                ADC_IRQHandler
                0x08005074                DMA1_Stream7_IRQHandler
                0x08005074                TIM7_IRQHandler
                0x08005074                CAN2_TX_IRQHandler
                0x08005074                TIM5_IRQHandler
                0x08005074                DMA2_Stream7_IRQHandler
                0x08005074                I2C3_EV_IRQHandler
                0x08005074                EXTI9_5_IRQHandler
                0x08005074                RTC_WKUP_IRQHandler
                0x08005074                ETH_WKUP_IRQHandler
                0x08005074                SPI2_IRQHandler
                0x08005074                OTG_HS_EP1_IN_IRQHandler
                0x08005074                DMA1_Stream0_IRQHandler
                0x08005074                CAN1_TX_IRQHandler
                0x08005074                EXTI4_IRQHandler
                0x08005074                FSMC_IRQHandler
                0x08005074                ETH_IRQHandler
                0x08005074                OTG_HS_EP1_OUT_IRQHandler
                0x08005074                WWDG_IRQHandler
                0x08005074                TIM2_IRQHandler
                0x08005074                OTG_FS_WKUP_IRQHandler
                0x08005074                TIM1_TRG_COM_TIM11_IRQHandler
                0x08005074                OTG_HS_IRQHandler
                0x08005074                EXTI1_IRQHandler
                0x08005074                I2C2_ER_IRQHandler
                0x08005074                DMA2_Stream1_IRQHandler
                0x08005074                CAN1_SCE_IRQHandler
                0x08005074                FLASH_IRQHandler
                0x08005074                DMA2_Stream4_IRQHandler
                0x08005074                SPI3_IRQHandler
                0x08005074                DMA1_Stream4_IRQHandler
                0x08005074                I2C1_ER_IRQHandler
                0x08005074                DMA2_Stream6_IRQHandler
                0x08005074                DMA1_Stream3_IRQHandler
 .text.SD_LowLevel_Init
                0x0800507c       0xc4 ..\obj\stm32f4_discovery.o
                0x0800507c                SD_LowLevel_Init
 .text.SD_LowLevel_DMA_TxConfig
                0x08005140       0xa0 ..\obj\stm32f4_discovery.o
                0x08005140                SD_LowLevel_DMA_TxConfig
 .text.SD_LowLevel_DMA_RxConfig
                0x080051e0       0xa0 ..\obj\stm32f4_discovery.o
                0x080051e0                SD_LowLevel_DMA_RxConfig
 .text.mavlink_serial_send
                0x08005280       0x4c ..\obj\MAVLINK_STM32.o
                0x08005280                mavlink_serial_send
 .text.empty_serial_buffer
                0x080052cc       0x44 ..\obj\MAVLINK_STM32.o
                0x080052cc                empty_serial_buffer
 .text.IWDG_WriteAccessCmd
                0x08005310       0x20 ..\obj\stm32f4xx_iwdg.o
                0x08005310                IWDG_WriteAccessCmd
 .text.IWDG_SetPrescaler
                0x08005330       0x20 ..\obj\stm32f4xx_iwdg.o
                0x08005330                IWDG_SetPrescaler
 .text.IWDG_SetReload
                0x08005350       0x20 ..\obj\stm32f4xx_iwdg.o
                0x08005350                IWDG_SetReload
 .text.IWDG_ReloadCounter
                0x08005370       0x18 ..\obj\stm32f4xx_iwdg.o
                0x08005370                IWDG_ReloadCounter
 .text.IWDG_Enable
                0x08005388       0x18 ..\obj\stm32f4xx_iwdg.o
                0x08005388                IWDG_Enable
 .text.USBD_SetupStage
                0x080053a0       0x6c ..\obj\usbd_core.o
 .text.USBD_DataOutStage
                0x0800540c       0xcc ..\obj\usbd_core.o
 .text.USBD_DataInStage
                0x080054d8      0x11c ..\obj\usbd_core.o
 .text.USBD_RunTestMode
                0x080055f4       0x24 ..\obj\usbd_core.o
 .text.USBD_Reset
                0x08005618       0x44 ..\obj\usbd_core.o
 .text.USBD_Resume
                0x0800565c       0x30 ..\obj\usbd_core.o
 .text.USBD_Suspend
                0x0800568c       0x30 ..\obj\usbd_core.o
 .text.USBD_SOF
                0x080056bc       0x2c ..\obj\usbd_core.o
 .text.USBD_SetCfg
                0x080056e8       0x30 ..\obj\usbd_core.o
                0x080056e8                USBD_SetCfg
 .text.USBD_ClrCfg
                0x08005718       0x28 ..\obj\usbd_core.o
                0x08005718                USBD_ClrCfg
 .text.USBD_IsoINIncomplete
                0x08005740       0x20 ..\obj\usbd_core.o
 .text.USBD_IsoOUTIncomplete
                0x08005760       0x20 ..\obj\usbd_core.o
 .text.USBD_DevConnected
                0x08005780       0x24 ..\obj\usbd_core.o
 .text.USBD_DevDisconnected
                0x080057a4       0x34 ..\obj\usbd_core.o
 .text.NVIC_SystemReset
                0x080057d8       0x28 ..\obj\main.o
 .text.main     0x08005800       0xd8 ..\obj\main.o
                0x08005800                main
 .text.NVIC_Configuration
                0x080058d8       0x24 ..\obj\main.o
                0x080058d8                NVIC_Configuration
 .text.IWDT_config
                0x080058fc       0x2c ..\obj\main.o
                0x080058fc                IWDT_config
 .text.vmisc_tasks
                0x08005928      0x294 ..\obj\main.o
                0x08005928                vmisc_tasks
 .text.vIMU_tasks
                0x08005bbc      0x19c ..\obj\main.o
                0x08005bbc                vIMU_tasks
 .text.UBLOX_read
                0x08005d58      0x244 ..\obj\ublox.o
                0x08005d58                UBLOX_read
 .text.parse_gps
                0x08005f9c      0x32c ..\obj\ublox.o
                0x08005f9c                parse_gps
 .text._update_checksum
                0x080062c8       0x50 ..\obj\ublox.o
                0x080062c8                _update_checksum
 .text._send_message
                0x08006318       0x84 ..\obj\ublox.o
                0x08006318                _send_message
 .text._configure_message_rate
                0x0800639c       0x34 ..\obj\ublox.o
                0x0800639c                _configure_message_rate
 .text._configure_gps
                0x080063d0       0xa0 ..\obj\ublox.o
                0x080063d0                _configure_gps
 .text.RCC_LSICmd
                0x08006470       0x20 ..\obj\stm32f4xx_rcc.o
                0x08006470                RCC_LSICmd
 .text.RCC_GetClocksFreq
                0x08006490      0x154 ..\obj\stm32f4xx_rcc.o
                0x08006490                RCC_GetClocksFreq
 .text.RCC_AHB1PeriphClockCmd
                0x080065e4       0x3c ..\obj\stm32f4xx_rcc.o
                0x080065e4                RCC_AHB1PeriphClockCmd
 .text.RCC_APB1PeriphClockCmd
                0x08006620       0x3c ..\obj\stm32f4xx_rcc.o
                0x08006620                RCC_APB1PeriphClockCmd
 .text.RCC_APB2PeriphClockCmd
                0x0800665c       0x3c ..\obj\stm32f4xx_rcc.o
                0x0800665c                RCC_APB2PeriphClockCmd
 .text.RCC_APB1PeriphResetCmd
                0x08006698       0x3c ..\obj\stm32f4xx_rcc.o
                0x08006698                RCC_APB1PeriphResetCmd
 .text.RCC_APB2PeriphResetCmd
                0x080066d4       0x3c ..\obj\stm32f4xx_rcc.o
                0x080066d4                RCC_APB2PeriphResetCmd
 .text.RCC_GetFlagStatus
                0x08006710       0x74 ..\obj\stm32f4xx_rcc.o
                0x08006710                RCC_GetFlagStatus
 .text.RCC_ClearFlag
                0x08006784       0x1c ..\obj\stm32f4xx_rcc.o
                0x08006784                RCC_ClearFlag
 .text.NMI_Handler
                0x080067a0        0xc ..\obj\stm32f4xx_it.o
                0x080067a0                NMI_Handler
 .text.HardFault_Handler
                0x080067ac        0x8 ..\obj\stm32f4xx_it.o
                0x080067ac                HardFault_Handler
 .text.MemManage_Handler
                0x080067b4        0x8 ..\obj\stm32f4xx_it.o
                0x080067b4                MemManage_Handler
 .text.BusFault_Handler
                0x080067bc        0x8 ..\obj\stm32f4xx_it.o
                0x080067bc                BusFault_Handler
 .text.UsageFault_Handler
                0x080067c4        0x8 ..\obj\stm32f4xx_it.o
                0x080067c4                UsageFault_Handler
 .text.DebugMon_Handler
                0x080067cc        0xc ..\obj\stm32f4xx_it.o
                0x080067cc                DebugMon_Handler
 .text.OTG_FS_IRQHandler
                0x080067d8       0x10 ..\obj\stm32f4xx_it.o
                0x080067d8                OTG_FS_IRQHandler
 .text.SDIO_IRQHandler
                0x080067e8        0xc ..\obj\stm32f4xx_it.o
                0x080067e8                SDIO_IRQHandler
 .text.read_adc
                0x080067f4       0x6c ..\obj\arduimu.o
                0x080067f4                read_adc
 .text.IMU_Update_ARDU
                0x08006860      0x25c ..\obj\arduimu.o
                0x08006860                IMU_Update_ARDU
 .text.find_max_min_values
                0x08006abc      0x14c ..\obj\arduimu.o
                0x08006abc                find_max_min_values
 .text.startup_ground
                0x08006c08      0x170 ..\obj\arduimu.o
                0x08006c08                startup_ground
 .text.HMC5883_calculate
                0x08006d78      0x1c4 ..\obj\arduimu.o
                0x08006d78                HMC5883_calculate
 .text.IMU_setup
                0x08006f3c       0x38 ..\obj\arduimu.o
                0x08006f3c                IMU_setup
 .text.zero_altitude
                0x08006f74       0x68 ..\obj\arduimu.o
                0x08006f74                zero_altitude
 .text.mag_calib
                0x08006fdc       0x20 ..\obj\arduimu.o
                0x08006fdc                mag_calib
 .text.xTimerCreateTimerTask
                0x08006ffc       0x58 ..\obj\timers.o
                0x08006ffc                xTimerCreateTimerTask
 .text.xTimerGenericCommand
                0x08007054       0x8c ..\obj\timers.o
                0x08007054                xTimerGenericCommand
 .text.prvProcessExpiredTimer
                0x080070e0       0x70 ..\obj\timers.o
 .text.prvTimerTask
                0x08007150       0x24 ..\obj\timers.o
 .text.prvProcessTimerOrBlockTask
                0x08007174       0x6c ..\obj\timers.o
 .text.prvGetNextExpireTime
                0x080071e0       0x48 ..\obj\timers.o
 .text.prvSampleTimeNow
                0x08007228       0x44 ..\obj\timers.o
 .text.prvInsertTimerInActiveList
                0x0800726c       0x84 ..\obj\timers.o
 .text.prvProcessReceivedCommands
                0x080072f0       0xec ..\obj\timers.o
 .text.prvSwitchTimerLists
                0x080073dc       0xb4 ..\obj\timers.o
 .text.prvCheckForValidListAndQueue
                0x08007490       0x54 ..\obj\timers.o
 .text.create_log_file
                0x080074e4      0x25c ..\obj\log.o
                0x080074e4                create_log_file
 .text.log_data
                0x08007740      0x47c ..\obj\log.o
                0x08007740                log_data
 .text.append_byte_to_array
                0x08007bbc      0x104 ..\obj\log.o
                0x08007bbc                append_byte_to_array
 .text.ADC_config
                0x08007cc0      0x218 ..\obj\ADC.o
                0x08007cc0                ADC_config
 .text.ADC_3_config
                0x08007ed8      0x178 ..\obj\ADC.o
                0x08007ed8                ADC_3_config
 .text.ADC_Init
                0x08008050       0xa8 ..\obj\stm32f4xx_adc.o
                0x08008050                ADC_Init
 .text.ADC_CommonInit
                0x080080f8       0x50 ..\obj\stm32f4xx_adc.o
                0x080080f8                ADC_CommonInit
 .text.ADC_Cmd  0x08008148       0x38 ..\obj\stm32f4xx_adc.o
                0x08008148                ADC_Cmd
 .text.ADC_RegularChannelConfig
                0x08008180      0x194 ..\obj\stm32f4xx_adc.o
                0x08008180                ADC_RegularChannelConfig
 .text.ADC_SoftwareStartConv
                0x08008314       0x20 ..\obj\stm32f4xx_adc.o
                0x08008314                ADC_SoftwareStartConv
 .text.ADC_DMACmd
                0x08008334       0x38 ..\obj\stm32f4xx_adc.o
                0x08008334                ADC_DMACmd
 .text.ADC_DMARequestAfterLastTransferCmd
                0x0800836c       0x38 ..\obj\stm32f4xx_adc.o
                0x0800836c                ADC_DMARequestAfterLastTransferCmd
 .text.RPM_config
                0x080083a4       0x7c ..\obj\RPM.o
                0x080083a4                RPM_config
 .text.EXTI15_10_IRQHandler
                0x08008420       0x30 ..\obj\RPM.o
                0x08008420                EXTI15_10_IRQHandler
 .text.xTaskGenericCreate
                0x08008450      0x160 ..\obj\tasks.o
                0x08008450                xTaskGenericCreate
 .text.vTaskDelay
                0x080085b0       0x50 ..\obj\tasks.o
                0x080085b0                vTaskDelay
 .text.vTaskStartScheduler
                0x08008600       0x70 ..\obj\tasks.o
                0x08008600                vTaskStartScheduler
 .text.vTaskSuspendAll
                0x08008670       0x1c ..\obj\tasks.o
                0x08008670                vTaskSuspendAll
 .text.prvGetExpectedIdleTime
                0x0800868c       0x50 ..\obj\tasks.o
 .text.xTaskResumeAll
                0x080086dc      0x118 ..\obj\tasks.o
                0x080086dc                xTaskResumeAll
 .text.xTaskGetTickCount
                0x080087f4       0x24 ..\obj\tasks.o
                0x080087f4                xTaskGetTickCount
 .text.vTaskStepTick
                0x08008818       0x38 ..\obj\tasks.o
                0x08008818                vTaskStepTick
 .text.xTaskIncrementTick
                0x08008850      0x18c ..\obj\tasks.o
                0x08008850                xTaskIncrementTick
 .text.vTaskSwitchContext
                0x080089dc       0x9c ..\obj\tasks.o
                0x080089dc                vTaskSwitchContext
 .text.vTaskPlaceOnEventList
                0x08008a78       0x6c ..\obj\tasks.o
                0x08008a78                vTaskPlaceOnEventList
 .text.vTaskPlaceOnEventListRestricted
                0x08008ae4       0x50 ..\obj\tasks.o
                0x08008ae4                vTaskPlaceOnEventListRestricted
 .text.xTaskRemoveFromEventList
                0x08008b34       0xac ..\obj\tasks.o
                0x08008b34                xTaskRemoveFromEventList
 .text.vTaskSetTimeOutState
                0x08008be0       0x34 ..\obj\tasks.o
                0x08008be0                vTaskSetTimeOutState
 .text.xTaskCheckForTimeOut
                0x08008c14       0xa0 ..\obj\tasks.o
                0x08008c14                xTaskCheckForTimeOut
 .text.vTaskMissedYield
                0x08008cb4       0x18 ..\obj\tasks.o
                0x08008cb4                vTaskMissedYield
 .text.prvIdleTask
                0x08008ccc       0x60 ..\obj\tasks.o
 .text.eTaskConfirmSleepModeStatus
                0x08008d2c       0x3c ..\obj\tasks.o
                0x08008d2c                eTaskConfirmSleepModeStatus
 .text.prvInitialiseTCBVariables
                0x08008d68       0x90 ..\obj\tasks.o
 .text.prvInitialiseTaskLists
                0x08008df8       0x74 ..\obj\tasks.o
 .text.prvCheckTasksWaitingTermination
                0x08008e6c        0xc ..\obj\tasks.o
 .text.prvAddCurrentTaskToDelayedList
                0x08008e78       0x6c ..\obj\tasks.o
 .text.prvAllocateTCBAndStack
                0x08008ee4       0x64 ..\obj\tasks.o
 .text.xTaskGetCurrentTaskHandle
                0x08008f48       0x20 ..\obj\tasks.o
                0x08008f48                xTaskGetCurrentTaskHandle
 .text.xTaskGetSchedulerState
                0x08008f68       0x3c ..\obj\tasks.o
                0x08008f68                xTaskGetSchedulerState
 .text.vTaskPriorityInherit
                0x08008fa4       0xb4 ..\obj\tasks.o
                0x08008fa4                vTaskPriorityInherit
 .text.vTaskPriorityDisinherit
                0x08009058       0x7c ..\obj\tasks.o
                0x08009058                vTaskPriorityDisinherit
 .text.NVIC_SystemReset
                0x080090d4       0x28 ..\obj\modem.o
 .text.crc_accumulate
                0x080090fc       0x60 ..\obj\modem.o
 .text.modem_config
                0x0800915c       0xcc ..\obj\modem.o
                0x0800915c                modem_config
 .text.xbee_put_char
                0x08009228       0x84 ..\obj\modem.o
                0x08009228                xbee_put_char
 .text.xbee_get_char
                0x080092ac       0x78 ..\obj\modem.o
                0x080092ac                xbee_get_char
 .text.USART1_IRQHandler
                0x08009324       0xd4 ..\obj\modem.o
                0x08009324                USART1_IRQHandler
 .text.parse_modem_data
                0x080093f8      0x10c ..\obj\modem.o
                0x080093f8                parse_modem_data
 .text.CRC_accumulate_rx
                0x08009504       0x60 ..\obj\modem.o
                0x08009504                CRC_accumulate_rx
 .text.calculate_xbee
                0x08009564       0xac ..\obj\modem.o
                0x08009564                calculate_xbee
 .text.externalDataPortInit
                0x08009610       0xd0 ..\obj\externalPackets.o
                0x08009610                externalDataPortInit
 .text.USART3_IRQHandler
                0x080096e0       0xcc ..\obj\externalPackets.o
                0x080096e0                USART3_IRQHandler
 .text.ParseExtDataByte
                0x080097ac       0xa4 ..\obj\externalPackets.o
                0x080097ac                ParseExtDataByte
 .text.ExtGetChar
                0x08009850       0x80 ..\obj\externalPackets.o
                0x08009850                ExtGetChar
 .text.CalculateExtIMU
                0x080098d0      0x148 ..\obj\externalPackets.o
                0x080098d0                CalculateExtIMU
 .text.CalculateExtGPS
                0x08009a18      0x220 ..\obj\externalPackets.o
                0x08009a18                CalculateExtGPS
 .text.PWM_out_config
                0x08009c38      0x2fc ..\obj\PWM_output.o
                0x08009c38                PWM_out_config
 .text.check_servo_limits
                0x08009f34       0x5c ..\obj\PWM_output.o
                0x08009f34                check_servo_limits
 .text.PWM_Set_Duty_Cycle
                0x08009f90      0x18c ..\obj\PWM_output.o
                0x08009f90                PWM_Set_Duty_Cycle
 .text.GPIO_Init
                0x0800a11c      0x11c ..\obj\stm32f4xx_gpio.o
                0x0800a11c                GPIO_Init
 .text.GPIO_WriteBit
                0x0800a238       0x30 ..\obj\stm32f4xx_gpio.o
                0x0800a238                GPIO_WriteBit
 .text.GPIO_PinAFConfig
                0x0800a268       0x90 ..\obj\stm32f4xx_gpio.o
                0x0800a268                GPIO_PinAFConfig
 .text.FLASH_Unlock
                0x0800a2f8       0x2c ..\obj\stm32f4xx_flash.o
                0x0800a2f8                FLASH_Unlock
 .text.FLASH_Lock
                0x0800a324       0x1c ..\obj\stm32f4xx_flash.o
                0x0800a324                FLASH_Lock
 .text.FLASH_EraseSector
                0x0800a340       0xc0 ..\obj\stm32f4xx_flash.o
                0x0800a340                FLASH_EraseSector
 .text.FLASH_ProgramHalfWord
                0x0800a400       0x6c ..\obj\stm32f4xx_flash.o
                0x0800a400                FLASH_ProgramHalfWord
 .text.FLASH_ProgramByte
                0x0800a46c       0x68 ..\obj\stm32f4xx_flash.o
                0x0800a46c                FLASH_ProgramByte
 .text.FLASH_ClearFlag
                0x0800a4d4       0x1c ..\obj\stm32f4xx_flash.o
                0x0800a4d4                FLASH_ClearFlag
 .text.FLASH_GetStatus
                0x0800a4f0       0x68 ..\obj\stm32f4xx_flash.o
                0x0800a4f0                FLASH_GetStatus
 .text.FLASH_WaitForLastOperation
                0x0800a558       0x30 ..\obj\stm32f4xx_flash.o
                0x0800a558                FLASH_WaitForLastOperation
 .text.vListInitialise
                0x0800a588       0x40 ..\obj\list.o
                0x0800a588                vListInitialise
 .text.vListInitialiseItem
                0x0800a5c8       0x18 ..\obj\list.o
                0x0800a5c8                vListInitialiseItem
 .text.vListInsertEnd
                0x0800a5e0       0x48 ..\obj\list.o
                0x0800a5e0                vListInsertEnd
 .text.vListInsert
                0x0800a628       0x70 ..\obj\list.o
                0x0800a628                vListInsert
 .text.uxListRemove
                0x0800a698       0x54 ..\obj\list.o
                0x0800a698                uxListRemove
 .text.SystemInit
                0x0800a6ec       0x68 ..\obj\system_stm32f4xx.o
                0x0800a6ec                SystemInit
 .text.SetSysClock
                0x0800a754       0xf4 ..\obj\system_stm32f4xx.o
 .text._sbrk    0x0800a848       0x40 ..\obj\syscalls.o
                0x0800a848                _sbrk
 .text.DMA_DeInit
                0x0800a888      0x1a4 ..\obj\stm32f4xx_dma.o
                0x0800a888                DMA_DeInit
 .text.DMA_Init
                0x0800aa2c       0xac ..\obj\stm32f4xx_dma.o
                0x0800aa2c                DMA_Init
 .text.DMA_Cmd  0x0800aad8       0x38 ..\obj\stm32f4xx_dma.o
                0x0800aad8                DMA_Cmd
 .text.DMA_FlowControllerConfig
                0x0800ab10       0x34 ..\obj\stm32f4xx_dma.o
                0x0800ab10                DMA_FlowControllerConfig
 .text.DMA_ClearFlag
                0x0800ab44       0x5c ..\obj\stm32f4xx_dma.o
                0x0800ab44                DMA_ClearFlag
 .text.DMA_ITConfig
                0x0800aba0       0x74 ..\obj\stm32f4xx_dma.o
                0x0800aba0                DMA_ITConfig
 .text.gps_comm_init
                0x0800ac14       0x38 ..\obj\gps.o
                0x0800ac14                gps_comm_init
 .text.ublox_init
                0x0800ac4c       0xd4 ..\obj\gps.o
                0x0800ac4c                ublox_init
 .text.USART2_IRQHandler
                0x0800ad20       0xbc ..\obj\gps.o
                0x0800ad20                USART2_IRQHandler
 .text.gps_put_char
                0x0800addc       0x64 ..\obj\gps.o
                0x0800addc                gps_put_char
 .text.gps_puts
                0x0800ae40       0x38 ..\obj\gps.o
                0x0800ae40                gps_puts
 .text.gps_get_char
                0x0800ae78       0x74 ..\obj\gps.o
                0x0800ae78                gps_get_char
 .text.parse_gps_data
                0x0800aeec       0x28 ..\obj\gps.o
                0x0800aeec                parse_gps_data
 *fill*         0x0800af14        0x4 
 .text.calculate_ublox
                0x0800af18      0x4b8 ..\obj\gps.o
                0x0800af18                calculate_ublox
 .text.USB_OTG_BSP_uDelay
                0x0800b3d0       0x34 ..\obj\usb_bsp.o
                0x0800b3d0                USB_OTG_BSP_uDelay
 .text.USBD_StdDevReq
                0x0800b404       0xa0 ..\obj\usbd_req.o
                0x0800b404                USBD_StdDevReq
 .text.USBD_StdItfReq
                0x0800b4a4       0x68 ..\obj\usbd_req.o
                0x0800b4a4                USBD_StdItfReq
 .text.USBD_StdEPReq
                0x0800b50c      0x1b0 ..\obj\usbd_req.o
                0x0800b50c                USBD_StdEPReq
 .text.USBD_GetDescriptor
                0x0800b6bc      0x1b8 ..\obj\usbd_req.o
 .text.USBD_SetAddress
                0x0800b874       0x7c ..\obj\usbd_req.o
 .text.USBD_SetConfig
                0x0800b8f0       0xf4 ..\obj\usbd_req.o
 .text.USBD_GetConfig
                0x0800b9e4       0x60 ..\obj\usbd_req.o
 .text.USBD_GetStatus
                0x0800ba44       0x54 ..\obj\usbd_req.o
 .text.USBD_SetFeature
                0x0800ba98       0xd8 ..\obj\usbd_req.o
 .text.USBD_ClrFeature
                0x0800bb70       0x50 ..\obj\usbd_req.o
 .text.USBD_ParseSetupRequest
                0x0800bbc0       0x90 ..\obj\usbd_req.o
                0x0800bbc0                USBD_ParseSetupRequest
 .text.USBD_CtlError
                0x0800bc50       0x28 ..\obj\usbd_req.o
                0x0800bc50                USBD_CtlError
 .text.xQueueGenericReset
                0x0800bc78       0xb0 ..\obj\queue.o
                0x0800bc78                xQueueGenericReset
 .text.xQueueGenericCreate
                0x0800bd28       0x7c ..\obj\queue.o
                0x0800bd28                xQueueGenericCreate
 .text.xQueueGenericSend
                0x0800bda4      0x160 ..\obj\queue.o
                0x0800bda4                xQueueGenericSend
 .text.xQueueGenericSendFromISR
                0x0800bf04       0xd4 ..\obj\queue.o
                0x0800bf04                xQueueGenericSendFromISR
 .text.xQueueGenericReceive
                0x0800bfd8      0x19c ..\obj\queue.o
                0x0800bfd8                xQueueGenericReceive
 .text.prvCopyDataToQueue
                0x0800c174       0xd0 ..\obj\queue.o
 .text.prvCopyDataFromQueue
                0x0800c244       0x4c ..\obj\queue.o
 .text.prvUnlockQueue
                0x0800c290       0x98 ..\obj\queue.o
 .text.prvIsQueueEmpty
                0x0800c328       0x2c ..\obj\queue.o
 .text.prvIsQueueFull
                0x0800c354       0x30 ..\obj\queue.o
 .text.vQueueWaitForMessageRestricted
                0x0800c384       0x58 ..\obj\queue.o
                0x0800c384                vQueueWaitForMessageRestricted
 .text.pxPortInitialiseStack
                0x0800c3dc       0x60 ..\obj\port.o
                0x0800c3dc                pxPortInitialiseStack
 .text.SVC_Handler
                0x0800c43c       0x1c ..\obj\port.o
                0x0800c43c                SVC_Handler
 .text.prvPortStartFirstTask
                0x0800c458       0x14 ..\obj\port.o
 .text.xPortStartScheduler
                0x0800c46c       0xcc ..\obj\port.o
                0x0800c46c                xPortStartScheduler
 .text.vPortYield
                0x0800c538       0x20 ..\obj\port.o
                0x0800c538                vPortYield
 .text.vPortEnterCritical
                0x0800c558       0x20 ..\obj\port.o
                0x0800c558                vPortEnterCritical
 .text.vPortExitCritical
                0x0800c578       0x24 ..\obj\port.o
                0x0800c578                vPortExitCritical
 .text.ulPortSetInterruptMask
                0x0800c59c       0x14 ..\obj\port.o
                0x0800c59c                ulPortSetInterruptMask
 .text.vPortClearInterruptMask
                0x0800c5b0        0x8 ..\obj\port.o
                0x0800c5b0                vPortClearInterruptMask
 .text.PendSV_Handler
                0x0800c5b8       0x50 ..\obj\port.o
                0x0800c5b8                PendSV_Handler
 .text.SysTick_Handler
                0x0800c608       0x28 ..\obj\port.o
                0x0800c608                SysTick_Handler
 .text.vPortSuppressTicksAndSleep
                0x0800c630      0x128 ..\obj\port.o
                0x0800c630                vPortSuppressTicksAndSleep
 .text.vPortSetupTimerInterrupt
                0x0800c758       0x78 ..\obj\port.o
                0x0800c758                vPortSetupTimerInterrupt
 .text.vPortEnableVFP
                0x0800c7d0       0x14 ..\obj\port.o
 .text.vPortValidateInterruptPriority
                0x0800c7e4       0x58 ..\obj\port.o
                0x0800c7e4                vPortValidateInterruptPriority
 .text.USBD_OTG_ISR_Handler
                0x0800c83c      0x190 ..\obj\usb_dcd_int.o
                0x0800c83c                USBD_OTG_ISR_Handler
 .text.DCD_SessionRequest_ISR
                0x0800c9cc       0x34 ..\obj\usb_dcd_int.o
 .text.DCD_OTG_ISR
                0x0800ca00       0x3c ..\obj\usb_dcd_int.o
 .text.DCD_HandleResume_ISR
                0x0800ca3c       0x80 ..\obj\usb_dcd_int.o
 .text.DCD_HandleUSBSuspend_ISR
                0x0800cabc       0xbc ..\obj\usb_dcd_int.o
 .text.DCD_HandleInEP_ISR
                0x0800cb78      0x19c ..\obj\usb_dcd_int.o
 .text.DCD_HandleOutEP_ISR
                0x0800cd14      0x150 ..\obj\usb_dcd_int.o
 .text.DCD_HandleSof_ISR
                0x0800ce64       0x34 ..\obj\usb_dcd_int.o
 .text.DCD_HandleRxStatusQueueLevel_ISR
                0x0800ce98      0x104 ..\obj\usb_dcd_int.o
 .text.DCD_WriteEmptyTxFifo
                0x0800cf9c       0xe4 ..\obj\usb_dcd_int.o
 .text.DCD_HandleUsbReset_ISR
                0x0800d080      0x120 ..\obj\usb_dcd_int.o
 .text.DCD_HandleEnumDone_ISR
                0x0800d1a0       0x78 ..\obj\usb_dcd_int.o
 .text.DCD_IsoINIncomplete_ISR
                0x0800d218       0x34 ..\obj\usb_dcd_int.o
 .text.DCD_IsoOUTIncomplete_ISR
                0x0800d24c       0x34 ..\obj\usb_dcd_int.o
 .text.DCD_ReadDevInEP
                0x0800d280       0x50 ..\obj\usb_dcd_int.o
 .text.queue_data
                0x0800d2d0       0xa0 ..\obj\debug.o
                0x0800d2d0                queue_data
 .text.debug_put_char
                0x0800d370       0x70 ..\obj\debug.o
                0x0800d370                debug_put_char
 .text.mem_cpy  0x0800d3e0       0x3c ..\obj\ff.o
 .text.mem_set  0x0800d41c       0x34 ..\obj\ff.o
 .text.mem_cmp  0x0800d450       0x50 ..\obj\ff.o
 .text.chk_chr  0x0800d4a0       0x38 ..\obj\ff.o
 .text.move_window
                0x0800d4d8       0xbc ..\obj\ff.o
 .text.sync     0x0800d594      0x14c ..\obj\ff.o
 .text.clust2sect
                0x0800d6e0       0x40 ..\obj\ff.o
                0x0800d6e0                clust2sect
 .text.get_fat  0x0800d720      0x158 ..\obj\ff.o
                0x0800d720                get_fat
 .text.put_fat  0x0800d878      0x1f4 ..\obj\ff.o
                0x0800d878                put_fat
 .text.remove_chain
                0x0800da6c       0x9c ..\obj\ff.o
 .text.create_chain
                0x0800db08      0x118 ..\obj\ff.o
 .text.dir_sdi  0x0800dc20      0x104 ..\obj\ff.o
 .text.dir_next
                0x0800dd24      0x1a8 ..\obj\ff.o
 .text.dir_find
                0x0800decc       0x94 ..\obj\ff.o
 .text.dir_register
                0x0800df60       0xac ..\obj\ff.o
 .text.create_name
                0x0800e00c      0x234 ..\obj\ff.o
 .text.follow_path
                0x0800e240       0xf4 ..\obj\ff.o
 .text.check_fs
                0x0800e334       0xc0 ..\obj\ff.o
 .text.chk_mounted
                0x0800e3f4      0x54c ..\obj\ff.o
 .text.validate
                0x0800e940       0x4c ..\obj\ff.o
 .text.f_mount  0x0800e98c       0x54 ..\obj\ff.o
                0x0800e98c                f_mount
 .text.f_open   0x0800e9e0      0x2e0 ..\obj\ff.o
                0x0800e9e0                f_open
 .text.f_write  0x0800ecc0      0x314 ..\obj\ff.o
                0x0800ecc0                f_write
 .text.f_sync   0x0800efd4      0x184 ..\obj\ff.o
                0x0800efd4                f_sync
 .text.f_close  0x0800f158       0x28 ..\obj\ff.o
                0x0800f158                f_close
 .text.f_lseek  0x0800f180      0x2b4 ..\obj\ff.o
                0x0800f180                f_lseek
 .text.I2C_DeInit
                0x0800f434       0x74 ..\obj\stm32f4xx_i2c.o
                0x0800f434                I2C_DeInit
 .text.I2C_Init
                0x0800f4a8      0x184 ..\obj\stm32f4xx_i2c.o
                0x0800f4a8                I2C_Init
 .text.I2C_Cmd  0x0800f62c       0x40 ..\obj\stm32f4xx_i2c.o
                0x0800f62c                I2C_Cmd
 .text.I2C_GenerateSTART
                0x0800f66c       0x40 ..\obj\stm32f4xx_i2c.o
                0x0800f66c                I2C_GenerateSTART
 .text.I2C_GenerateSTOP
                0x0800f6ac       0x40 ..\obj\stm32f4xx_i2c.o
                0x0800f6ac                I2C_GenerateSTOP
 .text.I2C_Send7bitAddress
                0x0800f6ec       0x3c ..\obj\stm32f4xx_i2c.o
                0x0800f6ec                I2C_Send7bitAddress
 .text.I2C_AcknowledgeConfig
                0x0800f728       0x40 ..\obj\stm32f4xx_i2c.o
                0x0800f728                I2C_AcknowledgeConfig
 .text.I2C_NACKPositionConfig
                0x0800f768       0x40 ..\obj\stm32f4xx_i2c.o
                0x0800f768                I2C_NACKPositionConfig
 .text.I2C_SendData
                0x0800f7a8       0x20 ..\obj\stm32f4xx_i2c.o
                0x0800f7a8                I2C_SendData
 .text.I2C_ReceiveData
                0x0800f7c8       0x1c ..\obj\stm32f4xx_i2c.o
                0x0800f7c8                I2C_ReceiveData
 .text.I2C_CheckEvent
                0x0800f7e4       0x60 ..\obj\stm32f4xx_i2c.o
                0x0800f7e4                I2C_CheckEvent
 .text.I2C_GetFlagStatus
                0x0800f844       0x68 ..\obj\stm32f4xx_i2c.o
                0x0800f844                I2C_GetFlagStatus
 .text.EXTI_Init
                0x0800f8ac       0xe4 ..\obj\stm32f4xx_exti.o
                0x0800f8ac                EXTI_Init
 .text.EXTI_GetITStatus
                0x0800f990       0x48 ..\obj\stm32f4xx_exti.o
                0x0800f990                EXTI_GetITStatus
 .text.EXTI_ClearITPendingBit
                0x0800f9d8       0x1c ..\obj\stm32f4xx_exti.o
                0x0800f9d8                EXTI_ClearITPendingBit
 .text.Vector_Dot_Product
                0x0800f9f4       0x58 ..\obj\vector.o
                0x0800f9f4                Vector_Dot_Product
 .text.Vector_Cross_Product
                0x0800fa4c       0xa8 ..\obj\vector.o
                0x0800fa4c                Vector_Cross_Product
 .text.Vector_Scale
                0x0800faf4       0x48 ..\obj\vector.o
                0x0800faf4                Vector_Scale
 .text.Vector_Add
                0x0800fb3c       0x50 ..\obj\vector.o
                0x0800fb3c                Vector_Add
 .text.NVIC_PriorityGroupConfig
                0x0800fb8c       0x24 ..\obj\misc.o
                0x0800fb8c                NVIC_PriorityGroupConfig
 .text.NVIC_Init
                0x0800fbb0       0xc0 ..\obj\misc.o
                0x0800fbb0                NVIC_Init
 .text.DCD_EP_Open
                0x0800fc70       0xac ..\obj\usb_dcd.o
                0x0800fc70                DCD_EP_Open
 .text.DCD_EP_PrepareRx
                0x0800fd1c       0x84 ..\obj\usb_dcd.o
                0x0800fd1c                DCD_EP_PrepareRx
 .text.DCD_EP_Tx
                0x0800fda0       0x78 ..\obj\usb_dcd.o
                0x0800fda0                DCD_EP_Tx
 .text.DCD_EP_Stall
                0x0800fe18       0x78 ..\obj\usb_dcd.o
                0x0800fe18                DCD_EP_Stall
 .text.DCD_EP_ClrStall
                0x0800fe90       0x78 ..\obj\usb_dcd.o
                0x0800fe90                DCD_EP_ClrStall
 .text.DCD_EP_SetAddress
                0x0800ff08       0x3c ..\obj\usb_dcd.o
                0x0800ff08                DCD_EP_SetAddress
 .text.Matrix_Multiply
                0x0800ff44       0xe0 ..\obj\matrix.o
                0x0800ff44                Matrix_Multiply
 .text.MPU6050_Initialize
                0x08010024       0x20 ..\obj\MPU6050.o
                0x08010024                MPU6050_Initialize
 .text.MPU6050_SetClockSource
                0x08010044       0x20 ..\obj\MPU6050.o
                0x08010044                MPU6050_SetClockSource
 .text.MPU6050_SetFullScaleGyroRange
                0x08010064       0x20 ..\obj\MPU6050.o
                0x08010064                MPU6050_SetFullScaleGyroRange
 .text.MPU6050_SetFullScaleAccelRange
                0x08010084       0x20 ..\obj\MPU6050.o
                0x08010084                MPU6050_SetFullScaleAccelRange
 .text.MPU6050_SetSleepModeStatus
                0x080100a4       0x1c ..\obj\MPU6050.o
                0x080100a4                MPU6050_SetSleepModeStatus
 .text.MPU6050_WriteBits
                0x080100c0       0xa0 ..\obj\MPU6050.o
                0x080100c0                MPU6050_WriteBits
 .text.MPU6050_WriteBit
                0x08010160       0x80 ..\obj\MPU6050.o
                0x08010160                MPU6050_WriteBit
 .text.MPU6050_I2C_Init
                0x080101e0       0x98 ..\obj\MPU6050.o
                0x080101e0                MPU6050_I2C_Init
 .text.MPU6050_I2C_ByteWrite
                0x08010278       0xac ..\obj\MPU6050.o
                0x08010278                MPU6050_I2C_ByteWrite
 .text.MPU6050_I2C_BufferRead
                0x08010324      0x224 ..\obj\MPU6050.o
                0x08010324                MPU6050_I2C_BufferRead
 .text.MPU6050_ConfigMag
                0x08010548       0xf0 ..\obj\MPU6050.o
                0x08010548                MPU6050_ConfigMag
 .text.MPU6050_Aux_Bypass_Enable
                0x08010638       0x20 ..\obj\MPU6050.o
                0x08010638                MPU6050_Aux_Bypass_Enable
 .text.MPU6050_GetRawAccelGyroMag
                0x08010658      0x1a0 ..\obj\MPU6050.o
                0x08010658                MPU6050_GetRawAccelGyroMag
 .text.MPU6050_I2C_Reboot
                0x080107f8       0x14 ..\obj\MPU6050.o
                0x080107f8                MPU6050_I2C_Reboot
 .text.zero_air_speed_calculate
                0x0801080c       0x78 ..\obj\air_speed.o
                0x0801080c                zero_air_speed_calculate
 *fill*         0x08010884        0x4 
 .text.air_speed_indicator
                0x08010888      0x130 ..\obj\air_speed.o
                0x08010888                air_speed_indicator
 .text.pvPortMalloc
                0x080109b8       0x8c ..\obj\heap_1.o
                0x080109b8                pvPortMalloc
 .text.vPortFree
                0x08010a44       0x1c ..\obj\heap_1.o
                0x08010a44                vPortFree
 .text.USBD_CtlSendData
                0x08010a60       0x40 ..\obj\usbd_ioreq.o
                0x08010a60                USBD_CtlSendData
 .text.USBD_CtlContinueSendData
                0x08010aa0       0x28 ..\obj\usbd_ioreq.o
                0x08010aa0                USBD_CtlContinueSendData
 .text.USBD_CtlContinueRx
                0x08010ac8       0x28 ..\obj\usbd_ioreq.o
                0x08010ac8                USBD_CtlContinueRx
 .text.USBD_CtlSendStatus
                0x08010af0       0x30 ..\obj\usbd_ioreq.o
                0x08010af0                USBD_CtlSendStatus
 .text.USBD_CtlReceiveStatus
                0x08010b20       0x30 ..\obj\usbd_ioreq.o
                0x08010b20                USBD_CtlReceiveStatus
 .text.TIM_TimeBaseInit
                0x08010b50       0xd4 ..\obj\stm32f4xx_tim.o
                0x08010b50                TIM_TimeBaseInit
 .text.TIM_TimeBaseStructInit
                0x08010c24       0x34 ..\obj\stm32f4xx_tim.o
                0x08010c24                TIM_TimeBaseStructInit
 .text.TIM_ARRPreloadConfig
                0x08010c58       0x40 ..\obj\stm32f4xx_tim.o
                0x08010c58                TIM_ARRPreloadConfig
 .text.TIM_Cmd  0x08010c98       0x40 ..\obj\stm32f4xx_tim.o
                0x08010c98                TIM_Cmd
 .text.TIM_OC1Init
                0x08010cd8       0xf4 ..\obj\stm32f4xx_tim.o
                0x08010cd8                TIM_OC1Init
 .text.TIM_OC2Init
                0x08010dcc      0x110 ..\obj\stm32f4xx_tim.o
                0x08010dcc                TIM_OC2Init
 .text.TIM_OC3Init
                0x08010edc      0x10c ..\obj\stm32f4xx_tim.o
                0x08010edc                TIM_OC3Init
 .text.TIM_OC4Init
                0x08010fe8       0xcc ..\obj\stm32f4xx_tim.o
                0x08010fe8                TIM_OC4Init
 .text.TIM_SetCompare1
                0x080110b4       0x1c ..\obj\stm32f4xx_tim.o
                0x080110b4                TIM_SetCompare1
 .text.TIM_SetCompare2
                0x080110d0       0x1c ..\obj\stm32f4xx_tim.o
                0x080110d0                TIM_SetCompare2
 .text.TIM_SetCompare3
                0x080110ec       0x1c ..\obj\stm32f4xx_tim.o
                0x080110ec                TIM_SetCompare3
 .text.TIM_SetCompare4
                0x08011108       0x1c ..\obj\stm32f4xx_tim.o
                0x08011108                TIM_SetCompare4
 .text.TIM_OC1PreloadConfig
                0x08011124       0x38 ..\obj\stm32f4xx_tim.o
                0x08011124                TIM_OC1PreloadConfig
 .text.TIM_OC2PreloadConfig
                0x0801115c       0x3c ..\obj\stm32f4xx_tim.o
                0x0801115c                TIM_OC2PreloadConfig
 .text.TIM_OC3PreloadConfig
                0x08011198       0x38 ..\obj\stm32f4xx_tim.o
                0x08011198                TIM_OC3PreloadConfig
 .text.TIM_OC4PreloadConfig
                0x080111d0       0x3c ..\obj\stm32f4xx_tim.o
                0x080111d0                TIM_OC4PreloadConfig
 .text.TIM_CtrlPWMOutputs
                0x0801120c       0x4c ..\obj\stm32f4xx_tim.o
                0x0801120c                TIM_CtrlPWMOutputs
 .text.TIM_SelectOutputTrigger
                0x08011258       0x38 ..\obj\stm32f4xx_tim.o
                0x08011258                TIM_SelectOutputTrigger
 .text.DBGMCU_Config
                0x08011290       0x3c ..\obj\stm32f4xx_dbgmcu.o
                0x08011290                DBGMCU_Config
 .text.cos      0x080112cc       0x84 c:/program files (x86)/gnu tools arm embedded/4.9 2014q4/bin/../lib/gcc/arm-none-eabi/4.9.3/../../../../arm-none-eabi/lib/armv7e-m/softfp\libm.a(lib_a-s_cos.o)
                0x080112cc                cos
 .text.sin      0x08011350       0x94 c:/program files (x86)/gnu tools arm embedded/4.9 2014q4/bin/../lib/gcc/arm-none-eabi/4.9.3/../../../../arm-none-eabi/lib/armv7e-m/softfp\libm.a(lib_a-s_sin.o)
                0x08011350                sin
 .text.asin     0x080113e4       0xa8 c:/program files (x86)/gnu tools arm embedded/4.9 2014q4/bin/../lib/gcc/arm-none-eabi/4.9.3/../../../../arm-none-eabi/lib/armv7e-m/softfp\libm.a(lib_a-w_asin.o)
                0x080113e4                asin
 .text.atan2    0x0801148c        0x4 c:/program files (x86)/gnu tools arm embedded/4.9 2014q4/bin/../lib/gcc/arm-none-eabi/4.9.3/../../../../arm-none-eabi/lib/armv7e-m/softfp\libm.a(lib_a-w_atan2.o)
                0x0801148c                atan2
 .text.pow      0x08011490      0x2f8 c:/program files (x86)/gnu tools arm embedded/4.9 2014q4/bin/../lib/gcc/arm-none-eabi/4.9.3/../../../../arm-none-eabi/lib/armv7e-m/softfp\libm.a(lib_a-w_pow.o)
                0x08011490                pow
 .text.sqrt     0x08011788       0xac c:/program files (x86)/gnu tools arm embedded/4.9 2014q4/bin/../lib/gcc/arm-none-eabi/4.9.3/../../../../arm-none-eabi/lib/armv7e-m/softfp\libm.a(lib_a-w_sqrt.o)
                0x08011788                sqrt
 *fill*         0x08011834        0x4 
 .text.__ieee754_asin
                0x08011838      0x468 c:/program files (x86)/gnu tools arm embedded/4.9 2014q4/bin/../lib/gcc/arm-none-eabi/4.9.3/../../../../arm-none-eabi/lib/armv7e-m/softfp\libm.a(lib_a-e_asin.o)
                0x08011838                __ieee754_asin
 .text.__ieee754_atan2
                0x08011ca0      0x208 c:/program files (x86)/gnu tools arm embedded/4.9 2014q4/bin/../lib/gcc/arm-none-eabi/4.9.3/../../../../arm-none-eabi/lib/armv7e-m/softfp\libm.a(lib_a-e_atan2.o)
                0x08011ca0                __ieee754_atan2
 .text.__ieee754_pow
                0x08011ea8      0xa98 c:/program files (x86)/gnu tools arm embedded/4.9 2014q4/bin/../lib/gcc/arm-none-eabi/4.9.3/../../../../arm-none-eabi/lib/armv7e-m/softfp\libm.a(lib_a-e_pow.o)
                0x08011ea8                __ieee754_pow
 .text.__ieee754_rem_pio2
                0x08012940      0x440 c:/program files (x86)/gnu tools arm embedded/4.9 2014q4/bin/../lib/gcc/arm-none-eabi/4.9.3/../../../../arm-none-eabi/lib/armv7e-m/softfp\libm.a(lib_a-e_rem_pio2.o)
                0x08012940                __ieee754_rem_pio2
 .text.__ieee754_sqrt
                0x08012d80      0x188 c:/program files (x86)/gnu tools arm embedded/4.9 2014q4/bin/../lib/gcc/arm-none-eabi/4.9.3/../../../../arm-none-eabi/lib/armv7e-m/softfp\libm.a(lib_a-e_sqrt.o)
                0x08012d80                __ieee754_sqrt
 .text.__kernel_cos
                0x08012f08      0x250 c:/program files (x86)/gnu tools arm embedded/4.9 2014q4/bin/../lib/gcc/arm-none-eabi/4.9.3/../../../../arm-none-eabi/lib/armv7e-m/softfp\libm.a(lib_a-k_cos.o)
                0x08012f08                __kernel_cos
 .text.__kernel_rem_pio2
                0x08013158      0x7d8 c:/program files (x86)/gnu tools arm embedded/4.9 2014q4/bin/../lib/gcc/arm-none-eabi/4.9.3/../../../../arm-none-eabi/lib/armv7e-m/softfp\libm.a(lib_a-k_rem_pio2.o)
                0x08013158                __kernel_rem_pio2
 .text.__kernel_sin
                0x08013930      0x170 c:/program files (x86)/gnu tools arm embedded/4.9 2014q4/bin/../lib/gcc/arm-none-eabi/4.9.3/../../../../arm-none-eabi/lib/armv7e-m/softfp\libm.a(lib_a-k_sin.o)
                0x08013930                __kernel_sin
 .text.atan     0x08013aa0      0x340 c:/program files (x86)/gnu tools arm embedded/4.9 2014q4/bin/../lib/gcc/arm-none-eabi/4.9.3/../../../../arm-none-eabi/lib/armv7e-m/softfp\libm.a(lib_a-s_atan.o)
                0x08013aa0                atan
 .text.fabs     0x08013de0        0x8 c:/program files (x86)/gnu tools arm embedded/4.9 2014q4/bin/../lib/gcc/arm-none-eabi/4.9.3/../../../../arm-none-eabi/lib/armv7e-m/softfp\libm.a(lib_a-s_fabs.o)
                0x08013de0                fabs
 .text.finite   0x08013de8        0xc c:/program files (x86)/gnu tools arm embedded/4.9 2014q4/bin/../lib/gcc/arm-none-eabi/4.9.3/../../../../arm-none-eabi/lib/armv7e-m/softfp\libm.a(lib_a-s_finite.o)
                0x08013de8                finite
 *fill*         0x08013df4        0x4 
 .text.floor    0x08013df8      0x110 c:/program files (x86)/gnu tools arm embedded/4.9 2014q4/bin/../lib/gcc/arm-none-eabi/4.9.3/../../../../arm-none-eabi/lib/armv7e-m/softfp\libm.a(lib_a-s_floor.o)
                0x08013df8                floor
 .text.__fpclassifyd
                0x08013f08       0x58 c:/program files (x86)/gnu tools arm embedded/4.9 2014q4/bin/../lib/gcc/arm-none-eabi/4.9.3/../../../../arm-none-eabi/lib/armv7e-m/softfp\libm.a(lib_a-s_fpclassify.o)
                0x08013f08                __fpclassifyd
 .text.matherr  0x08013f60        0x4 c:/program files (x86)/gnu tools arm embedded/4.9 2014q4/bin/../lib/gcc/arm-none-eabi/4.9.3/../../../../arm-none-eabi/lib/armv7e-m/softfp\libm.a(lib_a-s_matherr.o)
                0x08013f60                matherr
 .text.nan      0x08013f64        0xc c:/program files (x86)/gnu tools arm embedded/4.9 2014q4/bin/../lib/gcc/arm-none-eabi/4.9.3/../../../../arm-none-eabi/lib/armv7e-m/softfp\libm.a(lib_a-s_nan.o)
                0x08013f64                nan
 .text.rint     0x08013f70      0x118 c:/program files (x86)/gnu tools arm embedded/4.9 2014q4/bin/../lib/gcc/arm-none-eabi/4.9.3/../../../../arm-none-eabi/lib/armv7e-m/softfp\libm.a(lib_a-s_rint.o)
                0x08013f70                rint
 .text.scalbn   0x08014088      0x108 c:/program files (x86)/gnu tools arm embedded/4.9 2014q4/bin/../lib/gcc/arm-none-eabi/4.9.3/../../../../arm-none-eabi/lib/armv7e-m/softfp\libm.a(lib_a-s_scalbn.o)
                0x08014088                scalbn
 .text.copysign
                0x08014190       0x10 c:/program files (x86)/gnu tools arm embedded/4.9 2014q4/bin/../lib/gcc/arm-none-eabi/4.9.3/../../../../arm-none-eabi/lib/armv7e-m/softfp\libm.a(lib_a-s_copysign.o)
                0x08014190                copysign
 .text          0x080141a0      0x370 c:/program files (x86)/gnu tools arm embedded/4.9 2014q4/bin/../lib/gcc/arm-none-eabi/4.9.3/armv7e-m/softfp\libgcc.a(_arm_addsubdf3.o)
                0x080141a0                __aeabi_drsub
                0x080141a8                __aeabi_dsub
                0x080141a8                __subdf3
                0x080141ac                __aeabi_dadd
                0x080141ac                __adddf3
                0x08014424                __floatunsidf
                0x08014424                __aeabi_ui2d
                0x08014444                __floatsidf
                0x08014444                __aeabi_i2d
                0x08014468                __aeabi_f2d
                0x08014468                __extendsfdf2
                0x080144a4                __floatundidf
                0x080144a4                __aeabi_ul2d
                0x080144b4                __floatdidf
                0x080144b4                __aeabi_l2d
 .text          0x08014510      0x424 c:/program files (x86)/gnu tools arm embedded/4.9 2014q4/bin/../lib/gcc/arm-none-eabi/4.9.3/armv7e-m/softfp\libgcc.a(_arm_muldivdf3.o)
                0x08014510                __aeabi_dmul
                0x08014510                __muldf3
                0x08014764                __divdf3
                0x08014764                __aeabi_ddiv
 .text          0x08014934      0x110 c:/program files (x86)/gnu tools arm embedded/4.9 2014q4/bin/../lib/gcc/arm-none-eabi/4.9.3/armv7e-m/softfp\libgcc.a(_arm_cmpdf2.o)
                0x08014934                __gtdf2
                0x08014934                __gedf2
                0x0801493c                __ltdf2
                0x0801493c                __ledf2
                0x08014944                __nedf2
                0x08014944                __eqdf2
                0x08014944                __cmpdf2
                0x080149c0                __aeabi_cdrcmple
                0x080149d0                __aeabi_cdcmpeq
                0x080149d0                __aeabi_cdcmple
                0x080149e0                __aeabi_dcmpeq
                0x080149f4                __aeabi_dcmplt
                0x08014a08                __aeabi_dcmple
                0x08014a1c                __aeabi_dcmpge
                0x08014a30                __aeabi_dcmpgt
 .text          0x08014a44       0x50 c:/program files (x86)/gnu tools arm embedded/4.9 2014q4/bin/../lib/gcc/arm-none-eabi/4.9.3/armv7e-m/softfp\libgcc.a(_arm_fixdfsi.o)
                0x08014a44                __aeabi_d2iz
                0x08014a44                __fixdfsi
 .text          0x08014a94       0x40 c:/program files (x86)/gnu tools arm embedded/4.9 2014q4/bin/../lib/gcc/arm-none-eabi/4.9.3/armv7e-m/softfp\libgcc.a(_arm_fixunsdfsi.o)
                0x08014a94                __aeabi_d2uiz
                0x08014a94                __fixunsdfsi
 .text          0x08014ad4       0xa0 c:/program files (x86)/gnu tools arm embedded/4.9 2014q4/bin/../lib/gcc/arm-none-eabi/4.9.3/armv7e-m/softfp\libgcc.a(_arm_truncdfsf2.o)
                0x08014ad4                __truncdfsf2
                0x08014ad4                __aeabi_d2f
 .text          0x08014b74      0x21c c:/program files (x86)/gnu tools arm embedded/4.9 2014q4/bin/../lib/gcc/arm-none-eabi/4.9.3/armv7e-m/softfp\libgcc.a(_arm_addsubsf3.o)
                0x08014b74                __aeabi_frsub
                0x08014b7c                __subsf3
                0x08014b7c                __aeabi_fsub
                0x08014b80                __aeabi_fadd
                0x08014b80                __addsf3
                0x08014ce0                __aeabi_ui2f
                0x08014ce0                __floatunsisf
                0x08014ce8                __aeabi_i2f
                0x08014ce8                __floatsisf
                0x08014d04                __aeabi_ul2f
                0x08014d04                __floatundisf
                0x08014d14                __aeabi_l2f
                0x08014d14                __floatdisf
 .text.__errno  0x08014d90        0xc c:/program files (x86)/gnu tools arm embedded/4.9 2014q4/bin/../lib/gcc/arm-none-eabi/4.9.3/../../../../arm-none-eabi/lib/armv7e-m/softfp\libg.a(lib_a-errno.o)
                0x08014d90                __errno
 .text          0x08014d9c      0x134 c:/program files (x86)/gnu tools arm embedded/4.9 2014q4/bin/../lib/gcc/arm-none-eabi/4.9.3/../../../../arm-none-eabi/lib/armv7e-m/softfp\libg.a(lib_a-memcpy.o)
                0x08014d9c                memcpy
 .text.memset   0x08014ed0       0x9c c:/program files (x86)/gnu tools arm embedded/4.9 2014q4/bin/../lib/gcc/arm-none-eabi/4.9.3/../../../../arm-none-eabi/lib/armv7e-m/softfp\libg.a(lib_a-memset.o)
                0x08014ed0                memset
 .text.sprintf  0x08014f6c       0x4c c:/program files (x86)/gnu tools arm embedded/4.9 2014q4/bin/../lib/gcc/arm-none-eabi/4.9.3/../../../../arm-none-eabi/lib/armv7e-m/softfp\libg.a(lib_a-sprintf.o)
                0x08014f6c                sprintf
 .text.strcat   0x08014fb8       0x40 c:/program files (x86)/gnu tools arm embedded/4.9 2014q4/bin/../lib/gcc/arm-none-eabi/4.9.3/../../../../arm-none-eabi/lib/armv7e-m/softfp\libg.a(lib_a-strcat.o)
                0x08014fb8                strcat
 .text.strcpy   0x08014ff8       0xbc c:/program files (x86)/gnu tools arm embedded/4.9 2014q4/bin/../lib/gcc/arm-none-eabi/4.9.3/../../../../arm-none-eabi/lib/armv7e-m/softfp\libg.a(lib_a-strcpy.o)
                0x08014ff8                strcpy
 *fill*         0x080150b4        0x4 
 .text._svfprintf_r
                0x080150b8     0x14d0 c:/program files (x86)/gnu tools arm embedded/4.9 2014q4/bin/../lib/gcc/arm-none-eabi/4.9.3/../../../../arm-none-eabi/lib/armv7e-m/softfp\libg.a(lib_a-svfprintf.o)
                0x080150b8                _svfprintf_r
 .text.quorem   0x08016588      0x12c c:/program files (x86)/gnu tools arm embedded/4.9 2014q4/bin/../lib/gcc/arm-none-eabi/4.9.3/../../../../arm-none-eabi/lib/armv7e-m/softfp\libg.a(lib_a-dtoa.o)
 *fill*         0x080166b4        0x4 
 .text._dtoa_r  0x080166b8      0xe90 c:/program files (x86)/gnu tools arm embedded/4.9 2014q4/bin/../lib/gcc/arm-none-eabi/4.9.3/../../../../arm-none-eabi/lib/armv7e-m/softfp\libg.a(lib_a-dtoa.o)
                0x080166b8                _dtoa_r
 .text._localeconv_r
                0x08017548        0x8 c:/program files (x86)/gnu tools arm embedded/4.9 2014q4/bin/../lib/gcc/arm-none-eabi/4.9.3/../../../../arm-none-eabi/lib/armv7e-m/softfp\libg.a(lib_a-locale.o)
                0x08017548                _localeconv_r
 .text._malloc_r
                0x08017550      0x51c c:/program files (x86)/gnu tools arm embedded/4.9 2014q4/bin/../lib/gcc/arm-none-eabi/4.9.3/../../../../arm-none-eabi/lib/armv7e-m/softfp\libg.a(lib_a-mallocr.o)
                0x08017550                _malloc_r
 .text.memchr   0x08017a6c       0x94 c:/program files (x86)/gnu tools arm embedded/4.9 2014q4/bin/../lib/gcc/arm-none-eabi/4.9.3/../../../../arm-none-eabi/lib/armv7e-m/softfp\libg.a(lib_a-memchr.o)
                0x08017a6c                memchr
 .text.__malloc_lock
                0x08017b00        0x4 c:/program files (x86)/gnu tools arm embedded/4.9 2014q4/bin/../lib/gcc/arm-none-eabi/4.9.3/../../../../arm-none-eabi/lib/armv7e-m/softfp\libg.a(lib_a-mlock.o)
                0x08017b00                __malloc_lock
 .text.__malloc_unlock
                0x08017b04        0x4 c:/program files (x86)/gnu tools arm embedded/4.9 2014q4/bin/../lib/gcc/arm-none-eabi/4.9.3/../../../../arm-none-eabi/lib/armv7e-m/softfp\libg.a(lib_a-mlock.o)
                0x08017b04                __malloc_unlock
 .text._Balloc  0x08017b08       0x4c c:/program files (x86)/gnu tools arm embedded/4.9 2014q4/bin/../lib/gcc/arm-none-eabi/4.9.3/../../../../arm-none-eabi/lib/armv7e-m/softfp\libg.a(lib_a-mprec.o)
                0x08017b08                _Balloc
 .text._Bfree   0x08017b54       0x14 c:/program files (x86)/gnu tools arm embedded/4.9 2014q4/bin/../lib/gcc/arm-none-eabi/4.9.3/../../../../arm-none-eabi/lib/armv7e-m/softfp\libg.a(lib_a-mprec.o)
                0x08017b54                _Bfree
 .text.__multadd
                0x08017b68       0x84 c:/program files (x86)/gnu tools arm embedded/4.9 2014q4/bin/../lib/gcc/arm-none-eabi/4.9.3/../../../../arm-none-eabi/lib/armv7e-m/softfp\libg.a(lib_a-mprec.o)
                0x08017b68                __multadd
 .text.__hi0bits
                0x08017bec       0x40 c:/program files (x86)/gnu tools arm embedded/4.9 2014q4/bin/../lib/gcc/arm-none-eabi/4.9.3/../../../../arm-none-eabi/lib/armv7e-m/softfp\libg.a(lib_a-mprec.o)
                0x08017bec                __hi0bits
 .text.__lo0bits
                0x08017c2c       0x5c c:/program files (x86)/gnu tools arm embedded/4.9 2014q4/bin/../lib/gcc/arm-none-eabi/4.9.3/../../../../arm-none-eabi/lib/armv7e-m/softfp\libg.a(lib_a-mprec.o)
                0x08017c2c                __lo0bits
 .text.__i2b    0x08017c88       0x14 c:/program files (x86)/gnu tools arm embedded/4.9 2014q4/bin/../lib/gcc/arm-none-eabi/4.9.3/../../../../arm-none-eabi/lib/armv7e-m/softfp\libg.a(lib_a-mprec.o)
                0x08017c88                __i2b
 .text.__multiply
                0x08017c9c      0x134 c:/program files (x86)/gnu tools arm embedded/4.9 2014q4/bin/../lib/gcc/arm-none-eabi/4.9.3/../../../../arm-none-eabi/lib/armv7e-m/softfp\libg.a(lib_a-mprec.o)
                0x08017c9c                __multiply
 .text.__pow5mult
                0x08017dd0       0xa0 c:/program files (x86)/gnu tools arm embedded/4.9 2014q4/bin/../lib/gcc/arm-none-eabi/4.9.3/../../../../arm-none-eabi/lib/armv7e-m/softfp\libg.a(lib_a-mprec.o)
                0x08017dd0                __pow5mult
 .text.__lshift
                0x08017e70       0xac c:/program files (x86)/gnu tools arm embedded/4.9 2014q4/bin/../lib/gcc/arm-none-eabi/4.9.3/../../../../arm-none-eabi/lib/armv7e-m/softfp\libg.a(lib_a-mprec.o)
                0x08017e70                __lshift
 .text.__mcmp   0x08017f1c       0x48 c:/program files (x86)/gnu tools arm embedded/4.9 2014q4/bin/../lib/gcc/arm-none-eabi/4.9.3/../../../../arm-none-eabi/lib/armv7e-m/softfp\libg.a(lib_a-mprec.o)
                0x08017f1c                __mcmp
 .text.__mdiff  0x08017f64       0xd4 c:/program files (x86)/gnu tools arm embedded/4.9 2014q4/bin/../lib/gcc/arm-none-eabi/4.9.3/../../../../arm-none-eabi/lib/armv7e-m/softfp\libg.a(lib_a-mprec.o)
                0x08017f64                __mdiff
 .text.__d2b    0x08018038       0xb8 c:/program files (x86)/gnu tools arm embedded/4.9 2014q4/bin/../lib/gcc/arm-none-eabi/4.9.3/../../../../arm-none-eabi/lib/armv7e-m/softfp\libg.a(lib_a-mprec.o)
                0x08018038                __d2b
 .text._sbrk_r  0x080180f0       0x24 c:/program files (x86)/gnu tools arm embedded/4.9 2014q4/bin/../lib/gcc/arm-none-eabi/4.9.3/../../../../arm-none-eabi/lib/armv7e-m/softfp\libg.a(lib_a-sbrkr.o)
                0x080180f0                _sbrk_r
 .text.strlen   0x08018114       0x5c c:/program files (x86)/gnu tools arm embedded/4.9 2014q4/bin/../lib/gcc/arm-none-eabi/4.9.3/../../../../arm-none-eabi/lib/armv7e-m/softfp\libg.a(lib_a-strlen.o)
                0x08018114                strlen
 .text.__ssprint_r
                0x08018170      0x104 c:/program files (x86)/gnu tools arm embedded/4.9 2014q4/bin/../lib/gcc/arm-none-eabi/4.9.3/../../../../arm-none-eabi/lib/armv7e-m/softfp\libg.a(lib_a-svfiprintf.o)
                0x08018170                __ssprint_r
 .text._calloc_r
                0x08018274       0x60 c:/program files (x86)/gnu tools arm embedded/4.9 2014q4/bin/../lib/gcc/arm-none-eabi/4.9.3/../../../../arm-none-eabi/lib/armv7e-m/softfp\libg.a(lib_a-callocr.o)
                0x08018274                _calloc_r
 .text._malloc_trim_r
                0x080182d4       0x9c c:/program files (x86)/gnu tools arm embedded/4.9 2014q4/bin/../lib/gcc/arm-none-eabi/4.9.3/../../../../arm-none-eabi/lib/armv7e-m/softfp\libg.a(lib_a-freer.o)
                0x080182d4                _malloc_trim_r
 .text._free_r  0x08018370      0x1b0 c:/program files (x86)/gnu tools arm embedded/4.9 2014q4/bin/../lib/gcc/arm-none-eabi/4.9.3/../../../../arm-none-eabi/lib/armv7e-m/softfp\libg.a(lib_a-freer.o)
                0x08018370                _free_r
 .text.memmove  0x08018520       0xc8 c:/program files (x86)/gnu tools arm embedded/4.9 2014q4/bin/../lib/gcc/arm-none-eabi/4.9.3/../../../../arm-none-eabi/lib/armv7e-m/softfp\libg.a(lib_a-memmove.o)
                0x08018520                memmove
 .text._realloc_r
                0x080185e8      0x3ec c:/program files (x86)/gnu tools arm embedded/4.9 2014q4/bin/../lib/gcc/arm-none-eabi/4.9.3/../../../../arm-none-eabi/lib/armv7e-m/softfp\libg.a(lib_a-reallocr.o)
                0x080185e8                _realloc_r
 .text          0x080189d4       0x2c c:/program files (x86)/gnu tools arm embedded/4.9 2014q4/bin/../lib/gcc/arm-none-eabi/4.9.3/armv7e-m/softfp\libgcc.a(_aeabi_uldivmod.o)
                0x080189d4                __aeabi_uldivmod
 .text          0x08018a00       0x60 c:/program files (x86)/gnu tools arm embedded/4.9 2014q4/bin/../lib/gcc/arm-none-eabi/4.9.3/armv7e-m/softfp\libgcc.a(bpabi.o)
                0x08018a00                __gnu_ldivmod_helper
                0x08018a30                __gnu_uldivmod_helper
 .text          0x08018a60        0x4 c:/program files (x86)/gnu tools arm embedded/4.9 2014q4/bin/../lib/gcc/arm-none-eabi/4.9.3/armv7e-m/softfp\libgcc.a(_dvmd_tls.o)
                0x08018a60                __aeabi_idiv0
                0x08018a60                __aeabi_ldiv0
 .text          0x08018a64      0x29c c:/program files (x86)/gnu tools arm embedded/4.9 2014q4/bin/../lib/gcc/arm-none-eabi/4.9.3/armv7e-m/softfp\libgcc.a(_divdi3.o)
                0x08018a64                __divdi3
 .text          0x08018d00      0x26c c:/program files (x86)/gnu tools arm embedded/4.9 2014q4/bin/../lib/gcc/arm-none-eabi/4.9.3/armv7e-m/softfp\libgcc.a(_udivdi3.o)
                0x08018d00                __udivdi3
 *(.init)
 *(.fini)
 *crtbegin.o(.ctors)
 *crtbegin?.o(.ctors)
 *(EXCLUDE_FILE(*crtend.o *crtend?.o) .ctors)
 *(SORT(.ctors.*))
 *(.ctors)
 *crtbegin.o(.dtors)
 *crtbegin?.o(.dtors)
 *(EXCLUDE_FILE(*crtend.o *crtend?.o) .dtors)
 *(SORT(.dtors.*))
 *(.dtors)
 *(.rodata*)
 .rodata        0x08018f6c       0x2c ..\obj\main.o
                0x08018f6c                firmware_version
 .rodata        0x08018f98        0x8 ..\obj\timers.o
 .rodata        0x08018fa0      0x32c ..\obj\log.o
 .rodata        0x080192cc        0x8 ..\obj\tasks.o
 .rodata        0x080192d4       0x40 ..\obj\debug.o
 .rodata        0x08019314       0x10 ..\obj\ff.o
 .rodata.str1.4
                0x08019324        0x5 c:/program files (x86)/gnu tools arm embedded/4.9 2014q4/bin/../lib/gcc/arm-none-eabi/4.9.3/../../../../arm-none-eabi/lib/armv7e-m/softfp\libm.a(lib_a-w_asin.o)
                                  0xc (size before relaxing)
 *fill*         0x08019329        0x3 
 .rodata.str1.4
                0x0801932c        0x4 c:/program files (x86)/gnu tools arm embedded/4.9 2014q4/bin/../lib/gcc/arm-none-eabi/4.9.3/../../../../arm-none-eabi/lib/armv7e-m/softfp\libm.a(lib_a-w_pow.o)
 .rodata.str1.4
                0x08019330        0x5 c:/program files (x86)/gnu tools arm embedded/4.9 2014q4/bin/../lib/gcc/arm-none-eabi/4.9.3/../../../../arm-none-eabi/lib/armv7e-m/softfp\libm.a(lib_a-w_sqrt.o)
                                  0x8 (size before relaxing)
 *fill*         0x08019335        0x3 
 .rodata.dp_h   0x08019338       0x10 c:/program files (x86)/gnu tools arm embedded/4.9 2014q4/bin/../lib/gcc/arm-none-eabi/4.9.3/../../../../arm-none-eabi/lib/armv7e-m/softfp\libm.a(lib_a-e_pow.o)
 .rodata.dp_l   0x08019348       0x10 c:/program files (x86)/gnu tools arm embedded/4.9 2014q4/bin/../lib/gcc/arm-none-eabi/4.9.3/../../../../arm-none-eabi/lib/armv7e-m/softfp\libm.a(lib_a-e_pow.o)
 .rodata.bp     0x08019358       0x10 c:/program files (x86)/gnu tools arm embedded/4.9 2014q4/bin/../lib/gcc/arm-none-eabi/4.9.3/../../../../arm-none-eabi/lib/armv7e-m/softfp\libm.a(lib_a-e_pow.o)
 .rodata.str1.4
                0x00000000        0x4 c:/program files (x86)/gnu tools arm embedded/4.9 2014q4/bin/../lib/gcc/arm-none-eabi/4.9.3/../../../../arm-none-eabi/lib/armv7e-m/softfp\libm.a(lib_a-e_pow.o)
 .rodata.npio2_hw
                0x08019368       0x80 c:/program files (x86)/gnu tools arm embedded/4.9 2014q4/bin/../lib/gcc/arm-none-eabi/4.9.3/../../../../arm-none-eabi/lib/armv7e-m/softfp\libm.a(lib_a-e_rem_pio2.o)
 .rodata.two_over_pi
                0x080193e8      0x108 c:/program files (x86)/gnu tools arm embedded/4.9 2014q4/bin/../lib/gcc/arm-none-eabi/4.9.3/../../../../arm-none-eabi/lib/armv7e-m/softfp\libm.a(lib_a-e_rem_pio2.o)
 .rodata.init_jk
                0x080194f0       0x10 c:/program files (x86)/gnu tools arm embedded/4.9 2014q4/bin/../lib/gcc/arm-none-eabi/4.9.3/../../../../arm-none-eabi/lib/armv7e-m/softfp\libm.a(lib_a-k_rem_pio2.o)
 .rodata.PIo2   0x08019500       0x40 c:/program files (x86)/gnu tools arm embedded/4.9 2014q4/bin/../lib/gcc/arm-none-eabi/4.9.3/../../../../arm-none-eabi/lib/armv7e-m/softfp\libm.a(lib_a-k_rem_pio2.o)
 .rodata.atanlo
                0x08019540       0x20 c:/program files (x86)/gnu tools arm embedded/4.9 2014q4/bin/../lib/gcc/arm-none-eabi/4.9.3/../../../../arm-none-eabi/lib/armv7e-m/softfp\libm.a(lib_a-s_atan.o)
 .rodata.atanhi
                0x08019560       0x20 c:/program files (x86)/gnu tools arm embedded/4.9 2014q4/bin/../lib/gcc/arm-none-eabi/4.9.3/../../../../arm-none-eabi/lib/armv7e-m/softfp\libm.a(lib_a-s_atan.o)
 .rodata.TWO52  0x08019580       0x10 c:/program files (x86)/gnu tools arm embedded/4.9 2014q4/bin/../lib/gcc/arm-none-eabi/4.9.3/../../../../arm-none-eabi/lib/armv7e-m/softfp\libm.a(lib_a-s_rint.o)
 .rodata.str1.4
                0x08019590        0x2 c:/program files (x86)/gnu tools arm embedded/4.9 2014q4/bin/../lib/gcc/arm-none-eabi/4.9.3/../../../../arm-none-eabi/lib/armv7e-m/softfp\libg.a(lib_a-impure.o)
                                  0x4 (size before relaxing)
 *fill*         0x08019592        0x2 
 .rodata.blanks.6794
                0x08019594       0x10 c:/program files (x86)/gnu tools arm embedded/4.9 2014q4/bin/../lib/gcc/arm-none-eabi/4.9.3/../../../../arm-none-eabi/lib/armv7e-m/softfp\libg.a(lib_a-svfprintf.o)
 .rodata.str1.4
                0x080195a4       0x42 c:/program files (x86)/gnu tools arm embedded/4.9 2014q4/bin/../lib/gcc/arm-none-eabi/4.9.3/../../../../arm-none-eabi/lib/armv7e-m/softfp\libg.a(lib_a-svfprintf.o)
                                 0x44 (size before relaxing)
 *fill*         0x080195e6        0x2 
 .rodata.zeroes.6795
                0x080195e8       0x10 c:/program files (x86)/gnu tools arm embedded/4.9 2014q4/bin/../lib/gcc/arm-none-eabi/4.9.3/../../../../arm-none-eabi/lib/armv7e-m/softfp\libg.a(lib_a-svfprintf.o)
 .rodata.str1.4
                0x080195f8       0x10 c:/program files (x86)/gnu tools arm embedded/4.9 2014q4/bin/../lib/gcc/arm-none-eabi/4.9.3/../../../../arm-none-eabi/lib/armv7e-m/softfp\libg.a(lib_a-dtoa.o)
                                 0x14 (size before relaxing)
 .rodata.str1.4
                0x08019608        0xc c:/program files (x86)/gnu tools arm embedded/4.9 2014q4/bin/../lib/gcc/arm-none-eabi/4.9.3/../../../../arm-none-eabi/lib/armv7e-m/softfp\libg.a(lib_a-locale.o)
                                 0x14 (size before relaxing)
 *fill*         0x08019614        0x4 
 .rodata.__mprec_tens
                0x08019618       0xc8 c:/program files (x86)/gnu tools arm embedded/4.9 2014q4/bin/../lib/gcc/arm-none-eabi/4.9.3/../../../../arm-none-eabi/lib/armv7e-m/softfp\libg.a(lib_a-mprec.o)
                0x08019618                __mprec_tens
 .rodata.__mprec_bigtens
                0x080196e0       0x28 c:/program files (x86)/gnu tools arm embedded/4.9 2014q4/bin/../lib/gcc/arm-none-eabi/4.9.3/../../../../arm-none-eabi/lib/armv7e-m/softfp\libg.a(lib_a-mprec.o)
                0x080196e0                __mprec_bigtens
 .rodata.p05.5265
                0x08019708        0xc c:/program files (x86)/gnu tools arm embedded/4.9 2014q4/bin/../lib/gcc/arm-none-eabi/4.9.3/../../../../arm-none-eabi/lib/armv7e-m/softfp\libg.a(lib_a-mprec.o)
 *(.eh_fram e*)

.glue_7         0x08019714        0x0
 .glue_7        0x00000000        0x0 linker stubs

.glue_7t        0x08019714        0x0
 .glue_7t       0x00000000        0x0 linker stubs

.vfp11_veneer   0x08019714        0x0
 .vfp11_veneer  0x00000000        0x0 linker stubs

.v4_bx          0x08019714        0x0
 .v4_bx         0x00000000        0x0 linker stubs

.iplt           0x08019714        0x0
 .iplt          0x00000000        0x0 ..\obj\MS5611.o

.ARM.extab
 *(.ARM.extab* .gnu.linkonce.armextab.*)
                0x08019714                __exidx_start = .

.ARM.exidx      0x08019714        0x8
 *(.ARM.exidx* .gnu.linkonce.armexidx.*)
 .ARM.exidx     0x08019714        0x8 c:/program files (x86)/gnu tools arm embedded/4.9 2014q4/bin/../lib/gcc/arm-none-eabi/4.9.3/armv7e-m/softfp\libgcc.a(_divdi3.o)
 .ARM.exidx     0x0801971c        0x0 c:/program files (x86)/gnu tools arm embedded/4.9 2014q4/bin/../lib/gcc/arm-none-eabi/4.9.3/armv7e-m/softfp\libgcc.a(_udivdi3.o)
                                  0x8 (size before relaxing)
                0x0801971c                __exidx_end = .
                0x0801971c                __etext = .
                0x0801971c                _sidata = __etext

.rel.dyn        0x0801971c        0x0
 .rel.iplt      0x00000000        0x0 ..\obj\MS5611.o

.data           0x20000000      0x96c load address 0x0801971c
                0x20000000                __data_start__ = .
                0x20000000                _sdata = __data_start__
 *(vtable)
 *(.data*)
 .data          0x20000000        0x8 ..\obj\MS5611.o
                0x20000000                pressure
                0x20000004                BaroAlt
 .data          0x20000008        0x1 ..\obj\loops.o
                0x20000008                excitation_channel
 *fill*         0x20000009        0x3 
 .data          0x2000000c       0x30 ..\obj\usbd_core.o
                0x2000000c                USBD_DCD_INT_cb
                0x20000038                USBD_DCD_INT_fops
 .data          0x2000003c        0x1 ..\obj\ublox.o
                0x2000003c                _nav_setting
 *fill*         0x2000003d        0x3 
 .data          0x20000040       0x10 ..\obj\stm32f4xx_rcc.o
 .data          0x20000050       0x74 ..\obj\arduimu.o
                0x20000050                G_Dt
                0x20000054                errorCourse
                0x20000058                DCM_Matrix
                0x2000007c                Update_Matrix
                0x200000a0                SENSOR_SIGN
 .data          0x200000c4       0x10 ..\obj\log.o
                0x200000c4                file_name
                0x200000d2                log_buff_status
 .data          0x200000d4        0x4 ..\obj\tasks.o
 .data          0x200000d8       0x14 ..\obj\system_stm32f4xx.o
                0x200000d8                SystemCoreClock
                0x200000dc                AHBPrescTable
 .data          0x200000ec        0x4 ..\obj\gps.o
                0x200000ec                nav_dt
 .data          0x200000f0        0x4 ..\obj\port.o
 .data.__fdlib_version
                0x200000f4        0x1 c:/program files (x86)/gnu tools arm embedded/4.9 2014q4/bin/../lib/gcc/arm-none-eabi/4.9.3/../../../../arm-none-eabi/lib/armv7e-m/softfp\libm.a(lib_a-s_lib_ver.o)
                0x200000f4                __fdlib_version
 *fill*         0x200000f5        0x3 
 .data.impure_data
                0x200000f8      0x428 c:/program files (x86)/gnu tools arm embedded/4.9 2014q4/bin/../lib/gcc/arm-none-eabi/4.9.3/../../../../arm-none-eabi/lib/armv7e-m/softfp\libg.a(lib_a-impure.o)
 .data._impure_ptr
                0x20000520        0x4 c:/program files (x86)/gnu tools arm embedded/4.9 2014q4/bin/../lib/gcc/arm-none-eabi/4.9.3/../../../../arm-none-eabi/lib/armv7e-m/softfp\libg.a(lib_a-impure.o)
                0x20000520                _impure_ptr
 .data.lconv    0x20000524       0x38 c:/program files (x86)/gnu tools arm embedded/4.9 2014q4/bin/../lib/gcc/arm-none-eabi/4.9.3/../../../../arm-none-eabi/lib/armv7e-m/softfp\libg.a(lib_a-locale.o)
 .data.__malloc_av_
                0x2000055c      0x408 c:/program files (x86)/gnu tools arm embedded/4.9 2014q4/bin/../lib/gcc/arm-none-eabi/4.9.3/../../../../arm-none-eabi/lib/armv7e-m/softfp\libg.a(lib_a-mallocr.o)
                0x2000055c                __malloc_av_
 .data.__malloc_trim_threshold
                0x20000964        0x4 c:/program files (x86)/gnu tools arm embedded/4.9 2014q4/bin/../lib/gcc/arm-none-eabi/4.9.3/../../../../arm-none-eabi/lib/armv7e-m/softfp\libg.a(lib_a-mallocr.o)
                0x20000964                __malloc_trim_threshold
 .data.__malloc_sbrk_base
                0x20000968        0x4 c:/program files (x86)/gnu tools arm embedded/4.9 2014q4/bin/../lib/gcc/arm-none-eabi/4.9.3/../../../../arm-none-eabi/lib/armv7e-m/softfp\libg.a(lib_a-mallocr.o)
                0x20000968                __malloc_sbrk_base
                0x2000096c                . = ALIGN (0x4)
                0x2000096c                PROVIDE (__preinit_array_start, .)
 *(.preinit_array)
                0x2000096c                PROVIDE (__preinit_array_end, .)
                0x2000096c                . = ALIGN (0x4)
                0x2000096c                PROVIDE (__init_array_start, .)
 *(SORT(.init_array.*))
 *(.init_array)
                0x2000096c                PROVIDE (__init_array_end, .)
                0x2000096c                . = ALIGN (0x4)
                0x2000096c                PROVIDE (__fini_array_start, .)
 *(SORT(.fini_array.*))
 *(.fini_array)
                0x2000096c                PROVIDE (__fini_array_end, .)
 *(.jcr*)
                0x2000096c                . = ALIGN (0x4)
                0x2000096c                __data_end__ = .
                0x2000096c                _edata = __data_end__

.igot.plt       0x2000096c        0x0 load address 0x0801a088
 .igot.plt      0x00000000        0x0 ..\obj\MS5611.o

.bss            0x20000970    0x17514 load address 0x0801a090
                0x20000970                . = ALIGN (0x4)
                0x20000970                __bss_start__ = .
                0x20000970                _sbss = __bss_start__
 *(.bss*)
 .bss           0x20000970       0x28 ..\obj\MS5611.o
                0x20000970                temperature
                0x20000974                altitude
 .bss           0x20000998       0x1c ..\obj\loops.o
                0x20000998                roll_target
                0x2000099c                heading_target
                0x200009a0                flight_mode
                0x200009a2                excitation_offset
                0x200009a4                excitation_time
                0x200009a6                excitation_state
                0x200009a8                excitation_time_elapsed
                0x200009ac                excitation_time_old
                0x200009b0                excitation_type
 .bss           0x200009b4       0x18 ..\obj\DCM.o
 .bss           0x200009cc        0x4 ..\obj\power_propulsion.o
                0x200009cc                motor_current
 .bss           0x200009d0       0x48 ..\obj\stm32f4_discovery_sdio_sd.o
                0x20000a08                StopCondition
                0x20000a0c                TransferError
                0x20000a10                TransferEnd
                0x20000a14                DMAEndOfTransfer
 .bss           0x20000a18       0x30 ..\obj\packets.o
 .bss           0x20000a48        0x1 ..\obj\MAVLINK_STM32.o
                0x20000a48                data_start_index
 .bss           0x20000a49        0x1 ..\obj\main.o
                0x20000a49                WDT_status
 *fill*         0x20000a4a        0x2 
 .bss           0x20000a4c       0x90 ..\obj\arduimu.o
                0x20000a4c                Accel_Vector
                0x20000a58                Gyro_Vector
                0x20000a64                Omega_Vector
                0x20000a70                Omega_P
                0x20000a7c                Omega_I
                0x20000a88                Omega
                0x20000a94                errorRollPitch
                0x20000aa0                errorYaw
                0x20000aac                ground_alt_offset
                0x20000ab0                MPU_TEMP
                0x20000ab4                calibrating_IMU
                0x20000ab5                calibrating_mag
                0x20000ab6                MAG_sample_count
                0x20000ab8                Temporary_Matrix
 .bss           0x20000adc       0x38 ..\obj\timers.o
 .bss           0x20000b14       0x10 ..\obj\log.o
                0x20000b14                log_init_flag
                0x20000b18                cursor_pos
                0x20000b1c                write_buff_to_card
                0x20000b20                log_loop_count
 .bss           0x20000b24        0x8 ..\obj\RPM.o
                0x20000b24                pulse_cnt
                0x20000b26                done_flag
                0x20000b28                rpm
 .bss           0x20000b2c       0xe4 ..\obj\tasks.o
                0x20000b2c                pxCurrentTCB
 .bss           0x20000c10       0x12 ..\obj\modem.o
                0x20000c10                xbee_rx_index_wr
                0x20000c12                xbee_rx_index_rd
                0x20000c14                xbee_rx_count
                0x20000c16                xbee_tx_index_rd
                0x20000c18                xbee_tx_index_wr
                0x20000c1a                xbee_tx_count
                0x20000c1c                xbee_packet_set
                0x20000c1d                xbee_packet_size
                0x20000c1e                xbee_fresh_data
                0x20000c1f                xbee_buff_index
                0x20000c20                modem_link_active
                0x20000c21                link_count
 *fill*         0x20000c22        0x2 
 .bss           0x20000c24       0x58 ..\obj\externalPackets.o
                0x20000c24                UART4RxRdIndex
                0x20000c25                UART4TxRdIndex
                0x20000c26                UART4RxCount
                0x20000c27                UART4TxCount
                0x20000c28                UART4RxWrIndex
                0x20000c29                UART4TxWrIndex
                0x20000c2a                packetReadStart
                0x20000c2b                maxBufferSize
                0x20000c2c                Roll
                0x20000c30                Pitch
                0x20000c34                Yaw
                0x20000c38                RollRate
                0x20000c3c                PitchRate
                0x20000c40                YawRate
                0x20000c44                GPSLAT
                0x20000c48                GPSLONG
                0x20000c4c                GPSAlt
                0x20000c50                Speed
                0x20000c54                Heading
                0x20000c58                GPSFix
                0x20000c59                GPSSAT
                0x20000c5c                GPSAirSpeed
                0x20000c60                BaroALT
 .bss           0x20000c7c        0x4 ..\obj\syscalls.o
 .bss           0x20000c80        0x8 ..\obj\gps.o
                0x20000c80                old_speed
                0x20000c84                old_tow
 .bss           0x20000c88       0x10 ..\obj\usbd_req.o
                0x20000c88                USBD_ep_status
                0x20000c8c                USBD_default_cfg
                0x20000c90                USBD_cfg_status
 .bss           0x20000c98       0x14 ..\obj\port.o
 .bss           0x20000cac        0x6 ..\obj\debug.o
                0x20000cac                debug_tx_index_rd
                0x20000cae                debug_tx_index_wr
                0x20000cb0                debug_tx_count
 *fill*         0x20000cb2        0x2 
 .bss           0x20000cb4        0x8 ..\obj\ff.o
 .bss           0x20000cbc        0xc ..\obj\air_speed.o
                0x20000cbc                air_speed
                0x20000cc0                ASI_press
                0x20000cc4                ASI_ZERO
 .bss           0x20000cc8    0x12c08 ..\obj\heap_1.o
 .bss.__malloc_max_total_mem
                0x200138d0        0x4 c:/program files (x86)/gnu tools arm embedded/4.9 2014q4/bin/../lib/gcc/arm-none-eabi/4.9.3/../../../../arm-none-eabi/lib/armv7e-m/softfp\libg.a(lib_a-mallocr.o)
                0x200138d0                __malloc_max_total_mem
 .bss.__malloc_max_sbrked_mem
                0x200138d4        0x4 c:/program files (x86)/gnu tools arm embedded/4.9 2014q4/bin/../lib/gcc/arm-none-eabi/4.9.3/../../../../arm-none-eabi/lib/armv7e-m/softfp\libg.a(lib_a-mallocr.o)
                0x200138d4                __malloc_max_sbrked_mem
 .bss.__malloc_top_pad
                0x200138d8        0x4 c:/program files (x86)/gnu tools arm embedded/4.9 2014q4/bin/../lib/gcc/arm-none-eabi/4.9.3/../../../../arm-none-eabi/lib/armv7e-m/softfp\libg.a(lib_a-mallocr.o)
                0x200138d8                __malloc_top_pad
 .bss.__malloc_current_mallinfo
                0x200138dc       0x28 c:/program files (x86)/gnu tools arm embedded/4.9 2014q4/bin/../lib/gcc/arm-none-eabi/4.9.3/../../../../arm-none-eabi/lib/armv7e-m/softfp\libg.a(lib_a-mallocr.o)
                0x200138dc                __malloc_current_mallinfo
 *(COMMON)
 COMMON         0x20013904      0x494 ..\obj\MS5611.o
                0x20013904                path
                0x20013908                fs32
                0x20013b38                fno
                0x20013b50                tmpBuffer
                0x20013b64                mavlink_system
                0x20013b6c                bw
                0x20013b70                res
                0x20013b74                fil
 COMMON         0x20013d98        0x8 ..\obj\power_propulsion.o
                0x20013d98                motor_RPM
                0x20013d9c                battery_V
 COMMON         0x20013da0       0xa0 ..\obj\stm32f4_discovery_sdio_sd.o
                0x20013da0                SDIO_CmdInitStructure
                0x20013db8                SDCardInfo
                0x20013e10                SDIO_InitStructure
                0x20013e28                SDIO_DataInitStructure
 COMMON         0x20013e40       0x90 ..\obj\packets.o
                0x20013e40                DL_power_propulsion
                0x20013e4c                DL_pressure_temperature
                0x20013e5c                DL_attitude_raw
                0x20013e70                DL_status
                0x20013e88                DL_GPS
                0x20013eb0                DL_attitude
                0x20013ec8                DL_surface_deflection
 COMMON         0x20013ed0       0x38 ..\obj\RC.o
                0x20013ed0                PWM_out_channel
                0x20013ee8                RC_in_sticks
                0x20013ef8                RC_trim
 COMMON         0x20013f08      0x107 ..\obj\MAVLINK_STM32.o
                0x20013f08                serial_buffer
 *fill*         0x2001400f        0x1 
 COMMON         0x20014010        0x4 ..\obj\usbd_core.o
                0x20014010                SET_TEST_MODE
 COMMON         0x20014014      0x5f4 ..\obj\main.o
                0x20014014                USB_OTG_dev
 COMMON         0x20014608       0xa8 ..\obj\ublox.o
                0x20014608                _new_position
                0x20014609                _disable_counter
                0x2001460a                _class
                0x2001460b                ck_b
                0x2001460c                GPS
                0x20014654                _buffer
                0x200146a4                _payload_length
                0x200146a6                next_fix
                0x200146a7                _step
                0x200146a8                _payload_counter
                0x200146aa                _ck_a
                0x200146ab                _msg_id
                0x200146ac                ck_a
                0x200146ad                _new_speed
                0x200146ae                _ck_b
                0x200146af                _fix_count
 COMMON         0x200146b0      0x1b6 ..\obj\arduimu.o
                0x200146b0                MAG_SCALE
                0x200146bc                MAG_X
                0x20014720                MAG_OFFSET
                0x20014728                Heading_Y
                0x2001472c                AN
                0x2001474c                mag_x
                0x20014750                mag_imu
                0x20014758                MAG_Y
                0x200147bc                Heading_X
                0x200147c0                mag_y
                0x200147c4                mag_z
                0x200147c8                MAG_Z
                0x2001482c                yaw
                0x20014830                pitch
                0x20014834                roll
                0x20014838                MAG_MAX
                0x20014840                AN_OFFSET
                0x20014860                MAG_MIN
 *fill*         0x20014866        0x2 
 COMMON         0x20014868     0x280c ..\obj\log.o
                0x20014868                SD_buffer2
                0x20015c6c                SD_buffer1
                0x20017070                LOG_BUFF
 COMMON         0x20017074       0x2c ..\obj\ADC.o
                0x20017074                ADCConvertedValue
                0x20017090                ADC_3_ConvertedValue
 COMMON         0x200170a0      0x838 ..\obj\modem.o
                0x200170a0                xbee_buff
                0x20017104                xbee_rx_buff
                0x200174ec                CRC_Accum_Rx
                0x200174f0                xbee_tx_buff
 COMMON         0x200178d8       0x82 ..\obj\externalPackets.o
                0x200178d8                receivedBufferIndex
                0x200178dc                extBuffer
                0x200178f4                UART4TxBuffer
                0x20017928                UART4RxBuffer
 *fill*         0x2001795a        0x2 
 COMMON         0x2001795c      0x330 ..\obj\gps.o
                0x2001795c                gps_tx
                0x20017964                gps_tx_buff
                0x200179e4                LAT_home
                0x200179e8                ublox
                0x20017a18                X2
                0x20017a1c                Y
                0x20017a20                X1
                0x20017a24                X3
                0x20017a28                gps_data
                0x20017a78                CurrentTime
                0x20017a7c                LONG_home
                0x20017a80                gps_rx_buff
                0x20017c80                gps_rx
                0x20017c88                X
 COMMON         0x20017c8c      0x1f4 ..\obj\debug.o
                0x20017c8c                debug_tx_buff
 COMMON         0x20017e80        0x4 c:/program files (x86)/gnu tools arm embedded/4.9 2014q4/bin/../lib/gcc/arm-none-eabi/4.9.3/../../../../arm-none-eabi/lib/armv7e-m/softfp\libg.a(lib_a-reent.o)
                0x20017e80                errno
                0x20017e84                . = ALIGN (0x4)
                0x20017e84                __bss_end__ = .
                0x20017e84                _ebss = __bss_end__

.heap           0x20017e84        0x0
                0x20017e84                __end__ = .
                0x20017e84                _end = __end__
                0x20017e84                end = __end__
 *(.heap*)
                0x20017e84                __HeapLimit = .

.co_stack       0x20017e84      0x804 load address 0x080315a4
                0x20017e88                . = ALIGN (0x8)
 *fill*         0x20017e84        0x4 
 *(.co_stack .co_stack.*)
 .co_stack      0x20017e88      0x800 ..\obj\startup_stm32f4xx.o
                0x20017e88                pulStack
                0x20020000                __StackTop = (ORIGIN (ram) + 0x20000)
                0x2001f7fc                __StackLimit = (__StackTop - SIZEOF (.co_stack))
                0x20020000                PROVIDE (__stack, __StackTop)
                0x00000001                ASSERT ((__StackLimit >= __HeapLimit), region ram  overflowed with stack)
LOAD ..\obj\MS5611.o
LOAD ..\obj\loops.o
LOAD ..\obj\stm32f4xx_syscfg.o
LOAD ..\obj\usb_core.o
LOAD ..\obj\DCM.o
LOAD ..\obj\delay.o
LOAD ..\obj\stm32f4xx_sdio.o
LOAD ..\obj\flash.o
LOAD ..\obj\usbd_usr.o
LOAD ..\obj\power_propulsion.o
LOAD ..\obj\stm32f4xx_usart.o
LOAD ..\obj\HMC5883L.o
LOAD ..\obj\stm32f4_discovery_sdio_sd.o
LOAD ..\obj\packets.o
LOAD ..\obj\RC.o
LOAD ..\obj\diskio.o
LOAD ..\obj\startup_stm32f4xx.o
LOAD ..\obj\stm32f4_discovery.o
LOAD ..\obj\MAVLINK_STM32.o
LOAD ..\obj\stm32f4xx_iwdg.o
LOAD ..\obj\usbd_msc_core.o
LOAD ..\obj\usbd_core.o
LOAD ..\obj\main.o
LOAD ..\obj\ublox.o
LOAD ..\obj\stm32f4xx_rcc.o
LOAD ..\obj\stm32f4xx_it.o
LOAD ..\obj\arduimu.o
LOAD ..\obj\timers.o
LOAD ..\obj\log.o
LOAD ..\obj\ADC.o
LOAD ..\obj\stm32f4xx_adc.o
LOAD ..\obj\RPM.o
LOAD ..\obj\usbd_storage_msd.o
LOAD ..\obj\tasks.o
LOAD ..\obj\usbd_msc_scsi.o
LOAD ..\obj\usbd_desc.o
LOAD ..\obj\modem.o
LOAD ..\obj\externalPackets.o
LOAD ..\obj\PWM_output.o
LOAD ..\obj\stm32f4xx_gpio.o
LOAD ..\obj\stm32f4xx_flash.o
LOAD ..\obj\list.o
LOAD ..\obj\system_stm32f4xx.o
LOAD ..\obj\syscalls.o
LOAD ..\obj\stm32f4xx_dma.o
LOAD ..\obj\gps.o
LOAD ..\obj\usb_bsp.o
LOAD ..\obj\usbd_req.o
LOAD ..\obj\queue.o
LOAD ..\obj\port.o
LOAD ..\obj\usb_dcd_int.o
LOAD ..\obj\usbd_msc_data.o
LOAD ..\obj\debug.o
LOAD ..\obj\ff.o
LOAD ..\obj\croutine.o
LOAD ..\obj\stm32f4xx_i2c.o
LOAD ..\obj\stm32f4xx_exti.o
LOAD ..\obj\vector.o
LOAD ..\obj\misc.o
LOAD ..\obj\usb_dcd.o
LOAD ..\obj\matrix.o
LOAD ..\obj\MPU6050.o
LOAD ..\obj\air_speed.o
LOAD ..\obj\heap_1.o
LOAD ..\obj\usbd_ioreq.o
LOAD ..\obj\usbd_msc_bot.o
LOAD ..\obj\stm32f4xx_tim.o
LOAD ..\obj\stm32f4xx_dbgmcu.o
LOAD c:/program files (x86)/gnu tools arm embedded/4.9 2014q4/bin/../lib/gcc/arm-none-eabi/4.9.3/../../../../arm-none-eabi/lib/armv7e-m/softfp\libm.a
START GROUP
LOAD c:/program files (x86)/gnu tools arm embedded/4.9 2014q4/bin/../lib/gcc/arm-none-eabi/4.9.3/armv7e-m/softfp\libgcc.a
LOAD c:/program files (x86)/gnu tools arm embedded/4.9 2014q4/bin/../lib/gcc/arm-none-eabi/4.9.3/../../../../arm-none-eabi/lib/armv7e-m/softfp\libg.a
LOAD c:/program files (x86)/gnu tools arm embedded/4.9 2014q4/bin/../lib/gcc/arm-none-eabi/4.9.3/../../../../arm-none-eabi/lib/armv7e-m/softfp\libc.a
END GROUP
OUTPUT(FreeRTOS_SDIO_LOG.elf elf32-littlearm)

.debug_info     0x00000000    0x26c37
 .debug_info    0x00000000      0x9e9 ..\obj\MS5611.o
 .debug_info    0x000009e9      0x7f0 ..\obj\loops.o
 .debug_info    0x000011d9      0x26c ..\obj\stm32f4xx_syscfg.o
 .debug_info    0x00001445     0x2484 ..\obj\usb_core.o
 .debug_info    0x000038c9      0x890 ..\obj\DCM.o
 .debug_info    0x00004159       0xe1 ..\obj\delay.o
 .debug_info    0x0000423a      0x7f5 ..\obj\stm32f4xx_sdio.o
 .debug_info    0x00004a2f      0x6ba ..\obj\flash.o
 .debug_info    0x000050e9      0x59d ..\obj\power_propulsion.o
 .debug_info    0x00005686      0x9c2 ..\obj\stm32f4xx_usart.o
 .debug_info    0x00006048      0xa74 ..\obj\HMC5883L.o
 .debug_info    0x00006abc     0x13a4 ..\obj\stm32f4_discovery_sdio_sd.o
 .debug_info    0x00007e60      0xd85 ..\obj\packets.o
 .debug_info    0x00008be5      0x670 ..\obj\RC.o
 .debug_info    0x00009255      0x472 ..\obj\diskio.o
 .debug_info    0x000096c7       0xed ..\obj\startup_stm32f4xx.o
 .debug_info    0x000097b4      0xa92 ..\obj\stm32f4_discovery.o
 .debug_info    0x0000a246      0x613 ..\obj\MAVLINK_STM32.o
 .debug_info    0x0000a859      0x20a ..\obj\stm32f4xx_iwdg.o
 .debug_info    0x0000aa63     0x1037 ..\obj\usbd_core.o
 .debug_info    0x0000ba9a     0x1a21 ..\obj\main.o
 .debug_info    0x0000d4bb      0xff3 ..\obj\ublox.o
 .debug_info    0x0000e4ae      0xc4d ..\obj\stm32f4xx_rcc.o
 .debug_info    0x0000f0fb      0xb55 ..\obj\stm32f4xx_it.o
 .debug_info    0x0000fc50      0xaeb ..\obj\arduimu.o
 .debug_info    0x0001073b      0x71b ..\obj\timers.o
 .debug_info    0x00010e56      0xc67 ..\obj\log.o
 .debug_info    0x00011abd      0x8b7 ..\obj\ADC.o
 .debug_info    0x00012374      0xc38 ..\obj\stm32f4xx_adc.o
 .debug_info    0x00012fac      0x647 ..\obj\RPM.o
 .debug_info    0x000135f3      0xc66 ..\obj\tasks.o
 .debug_info    0x00014259      0xf3b ..\obj\modem.o
 .debug_info    0x00015194      0x9bb ..\obj\externalPackets.o
 .debug_info    0x00015b4f      0xa4f ..\obj\PWM_output.o
 .debug_info    0x0001659e      0x605 ..\obj\stm32f4xx_gpio.o
 .debug_info    0x00016ba3      0x71b ..\obj\stm32f4xx_flash.o
 .debug_info    0x000172be      0x29e ..\obj\list.o
 .debug_info    0x0001755c      0x592 ..\obj\system_stm32f4xx.o
 .debug_info    0x00017aee      0x3ee ..\obj\syscalls.o
 .debug_info    0x00017edc      0x739 ..\obj\stm32f4xx_dma.o
 .debug_info    0x00018615     0x102b ..\obj\gps.o
 .debug_info    0x00019640      0xfcc ..\obj\usb_bsp.o
 .debug_info    0x0001a60c      0xfe9 ..\obj\usbd_req.o
 .debug_info    0x0001b5f5      0xa52 ..\obj\queue.o
 .debug_info    0x0001c047      0x3c3 ..\obj\port.o
 .debug_info    0x0001c40a     0x1eee ..\obj\usb_dcd_int.o
 .debug_info    0x0001e2f8      0xd08 ..\obj\debug.o
 .debug_info    0x0001f000     0x15d1 ..\obj\ff.o
 .debug_info    0x000205d1      0xaf4 ..\obj\stm32f4xx_i2c.o
 .debug_info    0x000210c5      0x347 ..\obj\stm32f4xx_exti.o
 .debug_info    0x0002140c      0x175 ..\obj\vector.o
 .debug_info    0x00021581      0x53d ..\obj\misc.o
 .debug_info    0x00021abe     0x1040 ..\obj\usb_dcd.o
 .debug_info    0x00022afe       0xd8 ..\obj\matrix.o
 .debug_info    0x00022bd6      0xe11 ..\obj\MPU6050.o
 .debug_info    0x000239e7      0x5c6 ..\obj\air_speed.o
 .debug_info    0x00023fad      0x175 ..\obj\heap_1.o
 .debug_info    0x00024122      0xcd8 ..\obj\usbd_ioreq.o
 .debug_info    0x00024dfa     0x1c61 ..\obj\stm32f4xx_tim.o
 .debug_info    0x00026a5b      0x1dc ..\obj\stm32f4xx_dbgmcu.o

.debug_abbrev   0x00000000     0x6821
 .debug_abbrev  0x00000000      0x294 ..\obj\MS5611.o
 .debug_abbrev  0x00000294      0x211 ..\obj\loops.o
 .debug_abbrev  0x000004a5      0x131 ..\obj\stm32f4xx_syscfg.o
 .debug_abbrev  0x000005d6      0x2e7 ..\obj\usb_core.o
 .debug_abbrev  0x000008bd      0x1f2 ..\obj\DCM.o
 .debug_abbrev  0x00000aaf       0x85 ..\obj\delay.o
 .debug_abbrev  0x00000b34      0x177 ..\obj\stm32f4xx_sdio.o
 .debug_abbrev  0x00000cab      0x1df ..\obj\flash.o
 .debug_abbrev  0x00000e8a      0x197 ..\obj\power_propulsion.o
 .debug_abbrev  0x00001021      0x155 ..\obj\stm32f4xx_usart.o
 .debug_abbrev  0x00001176      0x20b ..\obj\HMC5883L.o
 .debug_abbrev  0x00001381      0x1e9 ..\obj\stm32f4_discovery_sdio_sd.o
 .debug_abbrev  0x0000156a      0x286 ..\obj\packets.o
 .debug_abbrev  0x000017f0      0x1fb ..\obj\RC.o
 .debug_abbrev  0x000019eb      0x12e ..\obj\diskio.o
 .debug_abbrev  0x00001b19       0xb0 ..\obj\startup_stm32f4xx.o
 .debug_abbrev  0x00001bc9      0x1bb ..\obj\stm32f4_discovery.o
 .debug_abbrev  0x00001d84      0x1a4 ..\obj\MAVLINK_STM32.o
 .debug_abbrev  0x00001f28      0x101 ..\obj\stm32f4xx_iwdg.o
 .debug_abbrev  0x00002029      0x275 ..\obj\usbd_core.o
 .debug_abbrev  0x0000229e      0x33f ..\obj\main.o
 .debug_abbrev  0x000025dd      0x266 ..\obj\ublox.o
 .debug_abbrev  0x00002843      0x1e3 ..\obj\stm32f4xx_rcc.o
 .debug_abbrev  0x00002a26      0x175 ..\obj\stm32f4xx_it.o
 .debug_abbrev  0x00002b9b      0x298 ..\obj\arduimu.o
 .debug_abbrev  0x00002e33      0x184 ..\obj\timers.o
 .debug_abbrev  0x00002fb7      0x218 ..\obj\log.o
 .debug_abbrev  0x000031cf      0x10e ..\obj\ADC.o
 .debug_abbrev  0x000032dd      0x196 ..\obj\stm32f4xx_adc.o
 .debug_abbrev  0x00003473      0x14f ..\obj\RPM.o
 .debug_abbrev  0x000035c2      0x20e ..\obj\tasks.o
 .debug_abbrev  0x000037d0      0x2d4 ..\obj\modem.o
 .debug_abbrev  0x00003aa4      0x189 ..\obj\externalPackets.o
 .debug_abbrev  0x00003c2d      0x21d ..\obj\PWM_output.o
 .debug_abbrev  0x00003e4a      0x1a3 ..\obj\stm32f4xx_gpio.o
 .debug_abbrev  0x00003fed      0x1ae ..\obj\stm32f4xx_flash.o
 .debug_abbrev  0x0000419b       0xd6 ..\obj\list.o
 .debug_abbrev  0x00004271      0x136 ..\obj\system_stm32f4xx.o
 .debug_abbrev  0x000043a7       0xe2 ..\obj\syscalls.o
 .debug_abbrev  0x00004489      0x155 ..\obj\stm32f4xx_dma.o
 .debug_abbrev  0x000045de      0x28c ..\obj\gps.o
 .debug_abbrev  0x0000486a      0x211 ..\obj\usb_bsp.o
 .debug_abbrev  0x00004a7b      0x2a4 ..\obj\usbd_req.o
 .debug_abbrev  0x00004d1f      0x1bc ..\obj\queue.o
 .debug_abbrev  0x00004edb      0x1da ..\obj\port.o
 .debug_abbrev  0x000050b5      0x25b ..\obj\usb_dcd_int.o
 .debug_abbrev  0x00005310      0x214 ..\obj\debug.o
 .debug_abbrev  0x00005524      0x190 ..\obj\ff.o
 .debug_abbrev  0x000056b4      0x164 ..\obj\stm32f4xx_i2c.o
 .debug_abbrev  0x00005818      0x1a5 ..\obj\stm32f4xx_exti.o
 .debug_abbrev  0x000059bd       0xb5 ..\obj\vector.o
 .debug_abbrev  0x00005a72      0x145 ..\obj\misc.o
 .debug_abbrev  0x00005bb7      0x259 ..\obj\usb_dcd.o
 .debug_abbrev  0x00005e10       0x84 ..\obj\matrix.o
 .debug_abbrev  0x00005e94      0x2c4 ..\obj\MPU6050.o
 .debug_abbrev  0x00006158      0x1b1 ..\obj\air_speed.o
 .debug_abbrev  0x00006309      0x104 ..\obj\heap_1.o
 .debug_abbrev  0x0000640d      0x1af ..\obj\usbd_ioreq.o
 .debug_abbrev  0x000065bc      0x187 ..\obj\stm32f4xx_tim.o
 .debug_abbrev  0x00006743       0xde ..\obj\stm32f4xx_dbgmcu.o

.debug_aranges  0x00000000     0x2068
 .debug_aranges
                0x00000000       0x80 ..\obj\MS5611.o
 .debug_aranges
                0x00000080       0x58 ..\obj\loops.o
 .debug_aranges
                0x000000d8       0x48 ..\obj\stm32f4xx_syscfg.o
 .debug_aranges
                0x00000120      0x138 ..\obj\usb_core.o
 .debug_aranges
                0x00000258       0x48 ..\obj\DCM.o
 .debug_aranges
                0x000002a0       0x20 ..\obj\delay.o
 .debug_aranges
                0x000002c0      0x108 ..\obj\stm32f4xx_sdio.o
 .debug_aranges
                0x000003c8       0x30 ..\obj\flash.o
 .debug_aranges
                0x000003f8       0x30 ..\obj\power_propulsion.o
 .debug_aranges
                0x00000428      0x100 ..\obj\stm32f4xx_usart.o
 .debug_aranges
                0x00000528       0xd8 ..\obj\HMC5883L.o
 .debug_aranges
                0x00000600      0x140 ..\obj\stm32f4_discovery_sdio_sd.o
 .debug_aranges
                0x00000740       0xa8 ..\obj\packets.o
 .debug_aranges
                0x000007e8       0x38 ..\obj\RC.o
 .debug_aranges
                0x00000820       0x48 ..\obj\diskio.o
 .debug_aranges
                0x00000868       0x28 ..\obj\startup_stm32f4xx.o
 .debug_aranges
                0x00000890       0x68 ..\obj\stm32f4_discovery.o
 .debug_aranges
                0x000008f8       0x30 ..\obj\MAVLINK_STM32.o
 .debug_aranges
                0x00000928       0x48 ..\obj\stm32f4xx_iwdg.o
 .debug_aranges
                0x00000970       0x98 ..\obj\usbd_core.o
 .debug_aranges
                0x00000a08       0x50 ..\obj\main.o
 .debug_aranges
                0x00000a58       0x58 ..\obj\ublox.o
 .debug_aranges
                0x00000ab0      0x178 ..\obj\stm32f4xx_rcc.o
 .debug_aranges
                0x00000c28       0x58 ..\obj\stm32f4xx_it.o
 .debug_aranges
                0x00000c80       0x60 ..\obj\arduimu.o
 .debug_aranges
                0x00000ce0       0x88 ..\obj\timers.o
 .debug_aranges
                0x00000d68       0x38 ..\obj\log.o
 .debug_aranges
                0x00000da0       0x28 ..\obj\ADC.o
 .debug_aranges
                0x00000dc8      0x148 ..\obj\stm32f4xx_adc.o
 .debug_aranges
                0x00000f10       0x28 ..\obj\RPM.o
 .debug_aranges
                0x00000f38      0x128 ..\obj\tasks.o
 .debug_aranges
                0x00001060       0x68 ..\obj\modem.o
 .debug_aranges
                0x000010c8       0x50 ..\obj\externalPackets.o
 .debug_aranges
                0x00001118       0x38 ..\obj\PWM_output.o
 .debug_aranges
                0x00001150       0x88 ..\obj\stm32f4xx_gpio.o
 .debug_aranges
                0x000011d8      0x108 ..\obj\stm32f4xx_flash.o
 .debug_aranges
                0x000012e0       0x40 ..\obj\list.o
 .debug_aranges
                0x00001320       0x30 ..\obj\system_stm32f4xx.o
 .debug_aranges
                0x00001350       0x60 ..\obj\syscalls.o
 .debug_aranges
                0x000013b0       0xb0 ..\obj\stm32f4xx_dma.o
 .debug_aranges
                0x00001460       0x60 ..\obj\gps.o
 .debug_aranges
                0x000014c0       0x38 ..\obj\usb_bsp.o
 .debug_aranges
                0x000014f8       0x88 ..\obj\usbd_req.o
 .debug_aranges
                0x00001580       0xd8 ..\obj\queue.o
 .debug_aranges
                0x00001658       0x98 ..\obj\port.o
 .debug_aranges
                0x000016f0       0x90 ..\obj\usb_dcd_int.o
 .debug_aranges
                0x00001780       0x38 ..\obj\debug.o
 .debug_aranges
                0x000017b8      0x158 ..\obj\ff.o
 .debug_aranges
                0x00001910      0x120 ..\obj\stm32f4xx_i2c.o
 .debug_aranges
                0x00001a30       0x58 ..\obj\stm32f4xx_exti.o
 .debug_aranges
                0x00001a88       0x38 ..\obj\vector.o
 .debug_aranges
                0x00001ac0       0x40 ..\obj\misc.o
 .debug_aranges
                0x00001b00       0x80 ..\obj\usb_dcd.o
 .debug_aranges
                0x00001b80       0x20 ..\obj\matrix.o
 .debug_aranges
                0x00001ba0       0xd8 ..\obj\MPU6050.o
 .debug_aranges
                0x00001c78       0x30 ..\obj\air_speed.o
 .debug_aranges
                0x00001ca8       0x38 ..\obj\heap_1.o
 .debug_aranges
                0x00001ce0       0x50 ..\obj\usbd_ioreq.o
 .debug_aranges
                0x00001d30      0x2f8 ..\obj\stm32f4xx_tim.o
 .debug_aranges
                0x00002028       0x40 ..\obj\stm32f4xx_dbgmcu.o

.debug_ranges   0x00000000     0x1ca8
 .debug_ranges  0x00000000       0x70 ..\obj\MS5611.o
 .debug_ranges  0x00000070       0x48 ..\obj\loops.o
 .debug_ranges  0x000000b8       0x38 ..\obj\stm32f4xx_syscfg.o
 .debug_ranges  0x000000f0      0x128 ..\obj\usb_core.o
 .debug_ranges  0x00000218       0x38 ..\obj\DCM.o
 .debug_ranges  0x00000250       0x10 ..\obj\delay.o
 .debug_ranges  0x00000260       0xf8 ..\obj\stm32f4xx_sdio.o
 .debug_ranges  0x00000358       0x20 ..\obj\flash.o
 .debug_ranges  0x00000378       0x20 ..\obj\power_propulsion.o
 .debug_ranges  0x00000398       0xf0 ..\obj\stm32f4xx_usart.o
 .debug_ranges  0x00000488       0xc8 ..\obj\HMC5883L.o
 .debug_ranges  0x00000550      0x130 ..\obj\stm32f4_discovery_sdio_sd.o
 .debug_ranges  0x00000680       0x98 ..\obj\packets.o
 .debug_ranges  0x00000718       0x28 ..\obj\RC.o
 .debug_ranges  0x00000740       0x38 ..\obj\diskio.o
 .debug_ranges  0x00000778       0x18 ..\obj\startup_stm32f4xx.o
 .debug_ranges  0x00000790       0x58 ..\obj\stm32f4_discovery.o
 .debug_ranges  0x000007e8       0x20 ..\obj\MAVLINK_STM32.o
 .debug_ranges  0x00000808       0x38 ..\obj\stm32f4xx_iwdg.o
 .debug_ranges  0x00000840       0x88 ..\obj\usbd_core.o
 .debug_ranges  0x000008c8       0x40 ..\obj\main.o
 .debug_ranges  0x00000908       0x48 ..\obj\ublox.o
 .debug_ranges  0x00000950      0x168 ..\obj\stm32f4xx_rcc.o
 .debug_ranges  0x00000ab8       0x48 ..\obj\stm32f4xx_it.o
 .debug_ranges  0x00000b00       0x50 ..\obj\arduimu.o
 .debug_ranges  0x00000b50       0x78 ..\obj\timers.o
 .debug_ranges  0x00000bc8       0x28 ..\obj\log.o
 .debug_ranges  0x00000bf0       0x18 ..\obj\ADC.o
 .debug_ranges  0x00000c08      0x138 ..\obj\stm32f4xx_adc.o
 .debug_ranges  0x00000d40       0x18 ..\obj\RPM.o
 .debug_ranges  0x00000d58      0x118 ..\obj\tasks.o
 .debug_ranges  0x00000e70       0x58 ..\obj\modem.o
 .debug_ranges  0x00000ec8       0x40 ..\obj\externalPackets.o
 .debug_ranges  0x00000f08       0x28 ..\obj\PWM_output.o
 .debug_ranges  0x00000f30       0x78 ..\obj\stm32f4xx_gpio.o
 .debug_ranges  0x00000fa8       0xf8 ..\obj\stm32f4xx_flash.o
 .debug_ranges  0x000010a0       0x30 ..\obj\list.o
 .debug_ranges  0x000010d0       0x20 ..\obj\system_stm32f4xx.o
 .debug_ranges  0x000010f0       0x50 ..\obj\syscalls.o
 .debug_ranges  0x00001140       0xa0 ..\obj\stm32f4xx_dma.o
 .debug_ranges  0x000011e0       0x50 ..\obj\gps.o
 .debug_ranges  0x00001230       0x28 ..\obj\usb_bsp.o
 .debug_ranges  0x00001258       0x78 ..\obj\usbd_req.o
 .debug_ranges  0x000012d0       0xc8 ..\obj\queue.o
 .debug_ranges  0x00001398       0x88 ..\obj\port.o
 .debug_ranges  0x00001420       0x80 ..\obj\usb_dcd_int.o
 .debug_ranges  0x000014a0       0x28 ..\obj\debug.o
 .debug_ranges  0x000014c8      0x148 ..\obj\ff.o
 .debug_ranges  0x00001610      0x110 ..\obj\stm32f4xx_i2c.o
 .debug_ranges  0x00001720       0x48 ..\obj\stm32f4xx_exti.o
 .debug_ranges  0x00001768       0x28 ..\obj\vector.o
 .debug_ranges  0x00001790       0x30 ..\obj\misc.o
 .debug_ranges  0x000017c0       0x70 ..\obj\usb_dcd.o
 .debug_ranges  0x00001830       0x10 ..\obj\matrix.o
 .debug_ranges  0x00001840       0xc8 ..\obj\MPU6050.o
 .debug_ranges  0x00001908       0x20 ..\obj\air_speed.o
 .debug_ranges  0x00001928       0x28 ..\obj\heap_1.o
 .debug_ranges  0x00001950       0x40 ..\obj\usbd_ioreq.o
 .debug_ranges  0x00001990      0x2e8 ..\obj\stm32f4xx_tim.o
 .debug_ranges  0x00001c78       0x30 ..\obj\stm32f4xx_dbgmcu.o

.debug_line     0x00000000    0x112b9
 .debug_line    0x00000000      0x588 ..\obj\MS5611.o
 .debug_line    0x00000588      0x49d ..\obj\loops.o
 .debug_line    0x00000a25      0x2bf ..\obj\stm32f4xx_syscfg.o
 .debug_line    0x00000ce4      0x7b2 ..\obj\usb_core.o
 .debug_line    0x00001496      0x4fd ..\obj\DCM.o
 .debug_line    0x00001993      0x1d4 ..\obj\delay.o
 .debug_line    0x00001b67      0x51f ..\obj\stm32f4xx_sdio.o
 .debug_line    0x00002086      0x4d4 ..\obj\flash.o
 .debug_line    0x0000255a      0x3c0 ..\obj\power_propulsion.o
 .debug_line    0x0000291a      0x57d ..\obj\stm32f4xx_usart.o
 .debug_line    0x00002e97      0x5e8 ..\obj\HMC5883L.o
 .debug_line    0x0000347f      0xabd ..\obj\stm32f4_discovery_sdio_sd.o
 .debug_line    0x00003f3c      0x573 ..\obj\packets.o
 .debug_line    0x000044af      0x407 ..\obj\RC.o
 .debug_line    0x000048b6      0x331 ..\obj\diskio.o
 .debug_line    0x00004be7       0xd5 ..\obj\startup_stm32f4xx.o
 .debug_line    0x00004cbc      0x430 ..\obj\stm32f4_discovery.o
 .debug_line    0x000050ec      0x3a9 ..\obj\MAVLINK_STM32.o
 .debug_line    0x00005495      0x2b7 ..\obj\stm32f4xx_iwdg.o
 .debug_line    0x0000574c      0x427 ..\obj\usbd_core.o
 .debug_line    0x00005b73      0x54d ..\obj\main.o
 .debug_line    0x000060c0      0x529 ..\obj\ublox.o
 .debug_line    0x000065e9      0x67c ..\obj\stm32f4xx_rcc.o
 .debug_line    0x00006c65      0x2f2 ..\obj\stm32f4xx_it.o
 .debug_line    0x00006f57      0x504 ..\obj\arduimu.o
 .debug_line    0x0000745b      0x435 ..\obj\timers.o
 .debug_line    0x00007890      0x458 ..\obj\log.o
 .debug_line    0x00007ce8      0x376 ..\obj\ADC.o
 .debug_line    0x0000805e      0x62d ..\obj\stm32f4xx_adc.o
 .debug_line    0x0000868b      0x2fc ..\obj\RPM.o
 .debug_line    0x00008987      0x85b ..\obj\tasks.o
 .debug_line    0x000091e2      0x515 ..\obj\modem.o
 .debug_line    0x000096f7      0x407 ..\obj\externalPackets.o
 .debug_line    0x00009afe      0x488 ..\obj\PWM_output.o
 .debug_line    0x00009f86      0x41e ..\obj\stm32f4xx_gpio.o
 .debug_line    0x0000a3a4      0x562 ..\obj\stm32f4xx_flash.o
 .debug_line    0x0000a906      0x2d2 ..\obj\list.o
 .debug_line    0x0000abd8      0x264 ..\obj\system_stm32f4xx.o
 .debug_line    0x0000ae3c      0x1a6 ..\obj\syscalls.o
 .debug_line    0x0000afe2      0x4b7 ..\obj\stm32f4xx_dma.o
 .debug_line    0x0000b499      0x501 ..\obj\gps.o
 .debug_line    0x0000b99a      0x356 ..\obj\usb_bsp.o
 .debug_line    0x0000bcf0      0x4a6 ..\obj\usbd_req.o
 .debug_line    0x0000c196      0x787 ..\obj\queue.o
 .debug_line    0x0000c91d      0x3fb ..\obj\port.o
 .debug_line    0x0000cd18      0x4b3 ..\obj\usb_dcd_int.o
 .debug_line    0x0000d1cb      0x42a ..\obj\debug.o
 .debug_line    0x0000d5f5      0xc4a ..\obj\ff.o
 .debug_line    0x0000e23f      0x5b6 ..\obj\stm32f4xx_i2c.o
 .debug_line    0x0000e7f5      0x380 ..\obj\stm32f4xx_exti.o
 .debug_line    0x0000eb75      0x102 ..\obj\vector.o
 .debug_line    0x0000ec77      0x320 ..\obj\misc.o
 .debug_line    0x0000ef97      0x410 ..\obj\usb_dcd.o
 .debug_line    0x0000f3a7       0xcf ..\obj\matrix.o
 .debug_line    0x0000f476      0x6f5 ..\obj\MPU6050.o
 .debug_line    0x0000fb6b      0x3d0 ..\obj\air_speed.o
 .debug_line    0x0000ff3b      0x298 ..\obj\heap_1.o
 .debug_line    0x000101d3      0x2fa ..\obj\usbd_ioreq.o
 .debug_line    0x000104cd      0xb45 ..\obj\stm32f4xx_tim.o
 .debug_line    0x00011012      0x2a7 ..\obj\stm32f4xx_dbgmcu.o

.debug_str      0x00000000     0xb2e1
 .debug_str     0x00000000      0x69b ..\obj\MS5611.o
                                0x769 (size before relaxing)
 .debug_str     0x0000069b      0x1fa ..\obj\loops.o
                                0x6d4 (size before relaxing)
 .debug_str     0x00000895      0x1b9 ..\obj\stm32f4xx_syscfg.o
                                0x355 (size before relaxing)
 .debug_str     0x00000a4e     0x12e3 ..\obj\usb_core.o
                               0x16e7 (size before relaxing)
 .debug_str     0x00001d31      0x25e ..\obj\DCM.o
                                0x754 (size before relaxing)
 .debug_str     0x00001f8f       0x63 ..\obj\delay.o
                                0x1d8 (size before relaxing)
 .debug_str     0x00001ff2      0x4bb ..\obj\stm32f4xx_sdio.o
                                0x6a1 (size before relaxing)
 .debug_str     0x000024ad       0xb5 ..\obj\flash.o
                                0x5b8 (size before relaxing)
 .debug_str     0x00002562       0xbf ..\obj\power_propulsion.o
                                0x586 (size before relaxing)
 .debug_str     0x00002621      0x4bc ..\obj\stm32f4xx_usart.o
                                0x6f0 (size before relaxing)
 .debug_str     0x00002add      0x4ca ..\obj\HMC5883L.o
                                0x75a (size before relaxing)
 .debug_str     0x00002fa7      0xb97 ..\obj\stm32f4_discovery_sdio_sd.o
                                0xf88 (size before relaxing)
 .debug_str     0x00003b3e      0x5bf ..\obj\packets.o
                                0xc06 (size before relaxing)
 .debug_str     0x000040fd       0xb1 ..\obj\RC.o
                                0x5c7 (size before relaxing)
 .debug_str     0x000041ae      0x10b ..\obj\diskio.o
                                0x602 (size before relaxing)
 .debug_str     0x000042b9       0xe3 ..\obj\startup_stm32f4xx.o
                                0x1a8 (size before relaxing)
 .debug_str     0x0000439c      0x9ca ..\obj\stm32f4_discovery.o
                                0xd43 (size before relaxing)
 .debug_str     0x00004d66       0xa4 ..\obj\MAVLINK_STM32.o
                                0x5e3 (size before relaxing)
 .debug_str     0x00004e0a      0x11b ..\obj\stm32f4xx_iwdg.o
                                0x2cd (size before relaxing)
 .debug_str     0x00004f25      0x1ee ..\obj\usbd_core.o
                                0xc26 (size before relaxing)
 .debug_str     0x00005113      0x2c6 ..\obj\main.o
                               0x171f (size before relaxing)
 .debug_str     0x000053d9      0x606 ..\obj\ublox.o
                                0xc5d (size before relaxing)
 .debug_str     0x000059df      0x610 ..\obj\stm32f4xx_rcc.o
                                0x8b1 (size before relaxing)
 .debug_str     0x00005fef      0x102 ..\obj\stm32f4xx_it.o
                                0xa10 (size before relaxing)
 .debug_str     0x000060f1      0x18e ..\obj\arduimu.o
                                0x7cc (size before relaxing)
 .debug_str     0x0000627f      0x46b ..\obj\timers.o
                                0x60e (size before relaxing)
 .debug_str     0x000066ea      0x117 ..\obj\log.o
                                0x9c5 (size before relaxing)
 .debug_str     0x00006801      0x2a5 ..\obj\ADC.o
                                0x7e8 (size before relaxing)
 .debug_str     0x00006aa6      0x523 ..\obj\stm32f4xx_adc.o
                                0x865 (size before relaxing)
 .debug_str     0x00006fc9       0x8b ..\obj\RPM.o
                                0xa48 (size before relaxing)
 .debug_str     0x00007054      0x72a ..\obj\tasks.o
                                0x953 (size before relaxing)
 .debug_str     0x0000777e      0x180 ..\obj\modem.o
                                0xf3f (size before relaxing)
 .debug_str     0x000078fe      0x1b3 ..\obj\externalPackets.o
                                0xbd8 (size before relaxing)
 .debug_str     0x00007ab1      0x154 ..\obj\PWM_output.o
                                0x939 (size before relaxing)
 .debug_str     0x00007c05      0x1b9 ..\obj\stm32f4xx_gpio.o
                                0x504 (size before relaxing)
 .debug_str     0x00007dbe      0x3f3 ..\obj\stm32f4xx_flash.o
                                0x5f3 (size before relaxing)
 .debug_str     0x000081b1      0x107 ..\obj\list.o
                                0x300 (size before relaxing)
 .debug_str     0x000082b8       0xcb ..\obj\system_stm32f4xx.o
                                0x40b (size before relaxing)
 .debug_str     0x00008383      0x16e ..\obj\syscalls.o
                                0x370 (size before relaxing)
 .debug_str     0x000084f1      0x272 ..\obj\stm32f4xx_dma.o
                                0x5a3 (size before relaxing)
 .debug_str     0x00008763      0x177 ..\obj\gps.o
                                0xfb9 (size before relaxing)
 .debug_str     0x000088da       0xd3 ..\obj\usb_bsp.o
                               0x1123 (size before relaxing)
 .debug_str     0x000089ad      0x1b3 ..\obj\usbd_req.o
                                0xb90 (size before relaxing)
 .debug_str     0x00008b60      0x43f ..\obj\queue.o
                                0x6f4 (size before relaxing)
 .debug_str     0x00008f9f      0x32d ..\obj\port.o
                                0x523 (size before relaxing)
 .debug_str     0x000092cc      0x38e ..\obj\usb_dcd_int.o
                               0x1437 (size before relaxing)
 .debug_str     0x0000965a       0xd1 ..\obj\debug.o
                                0xf07 (size before relaxing)
 .debug_str     0x0000972b      0x278 ..\obj\ff.o
                                0x611 (size before relaxing)
 .debug_str     0x000099a3      0x371 ..\obj\stm32f4xx_i2c.o
                                0x6c6 (size before relaxing)
 .debug_str     0x00009d14      0x133 ..\obj\stm32f4xx_exti.o
                                0x3ba (size before relaxing)
 .debug_str     0x00009e47       0xe2 ..\obj\vector.o
                                0x192 (size before relaxing)
 .debug_str     0x00009f29      0x183 ..\obj\misc.o
                                0x42f (size before relaxing)
 .debug_str     0x0000a0ac      0x147 ..\obj\usb_dcd.o
                                0xbaf (size before relaxing)
 .debug_str     0x0000a1f3       0x74 ..\obj\matrix.o
                                0x12d (size before relaxing)
 .debug_str     0x0000a267      0x29a ..\obj\MPU6050.o
                                0xaaf (size before relaxing)
 .debug_str     0x0000a501       0xaf ..\obj\air_speed.o
                                0x5a1 (size before relaxing)
 .debug_str     0x0000a5b0       0xf0 ..\obj\heap_1.o
                                0x252 (size before relaxing)
 .debug_str     0x0000a6a0      0x101 ..\obj\usbd_ioreq.o
                                0xa3b (size before relaxing)
 .debug_str     0x0000a7a1      0xa31 ..\obj\stm32f4xx_tim.o
                                0xe31 (size before relaxing)
 .debug_str     0x0000b1d2      0x10f ..\obj\stm32f4xx_dbgmcu.o
                                0x2a1 (size before relaxing)

.comment        0x00000000       0x70
 .comment       0x00000000       0x70 ..\obj\MS5611.o
                                 0x71 (size before relaxing)
 .comment       0x00000000       0x71 ..\obj\loops.o
 .comment       0x00000000       0x71 ..\obj\stm32f4xx_syscfg.o
 .comment       0x00000000       0x71 ..\obj\usb_core.o
 .comment       0x00000000       0x71 ..\obj\DCM.o
 .comment       0x00000000       0x71 ..\obj\delay.o
 .comment       0x00000000       0x71 ..\obj\stm32f4xx_sdio.o
 .comment       0x00000000       0x71 ..\obj\flash.o
 .comment       0x00000000       0x71 ..\obj\power_propulsion.o
 .comment       0x00000000       0x71 ..\obj\stm32f4xx_usart.o
 .comment       0x00000000       0x71 ..\obj\HMC5883L.o
 .comment       0x00000000       0x71 ..\obj\stm32f4_discovery_sdio_sd.o
 .comment       0x00000000       0x71 ..\obj\packets.o
 .comment       0x00000000       0x71 ..\obj\RC.o
 .comment       0x00000000       0x71 ..\obj\diskio.o
 .comment       0x00000000       0x71 ..\obj\startup_stm32f4xx.o
 .comment       0x00000000       0x71 ..\obj\stm32f4_discovery.o
 .comment       0x00000000       0x71 ..\obj\MAVLINK_STM32.o
 .comment       0x00000000       0x71 ..\obj\stm32f4xx_iwdg.o
 .comment       0x00000000       0x71 ..\obj\usbd_core.o
 .comment       0x00000000       0x71 ..\obj\main.o
 .comment       0x00000000       0x71 ..\obj\ublox.o
 .comment       0x00000000       0x71 ..\obj\stm32f4xx_rcc.o
 .comment       0x00000000       0x71 ..\obj\stm32f4xx_it.o
 .comment       0x00000000       0x71 ..\obj\arduimu.o
 .comment       0x00000000       0x71 ..\obj\timers.o
 .comment       0x00000000       0x71 ..\obj\log.o
 .comment       0x00000000       0x71 ..\obj\ADC.o
 .comment       0x00000000       0x71 ..\obj\stm32f4xx_adc.o
 .comment       0x00000000       0x71 ..\obj\RPM.o
 .comment       0x00000000       0x71 ..\obj\tasks.o
 .comment       0x00000000       0x71 ..\obj\modem.o
 .comment       0x00000000       0x71 ..\obj\externalPackets.o
 .comment       0x00000000       0x71 ..\obj\PWM_output.o
 .comment       0x00000000       0x71 ..\obj\stm32f4xx_gpio.o
 .comment       0x00000000       0x71 ..\obj\stm32f4xx_flash.o
 .comment       0x00000000       0x71 ..\obj\list.o
 .comment       0x00000000       0x71 ..\obj\system_stm32f4xx.o
 .comment       0x00000000       0x71 ..\obj\syscalls.o
 .comment       0x00000000       0x71 ..\obj\stm32f4xx_dma.o
 .comment       0x00000000       0x71 ..\obj\gps.o
 .comment       0x00000000       0x71 ..\obj\usb_bsp.o
 .comment       0x00000000       0x71 ..\obj\usbd_req.o
 .comment       0x00000000       0x71 ..\obj\queue.o
 .comment       0x00000000       0x71 ..\obj\port.o
 .comment       0x00000000       0x71 ..\obj\usb_dcd_int.o
 .comment       0x00000000       0x71 ..\obj\debug.o
 .comment       0x00000000       0x71 ..\obj\ff.o
 .comment       0x00000000       0x71 ..\obj\stm32f4xx_i2c.o
 .comment       0x00000000       0x71 ..\obj\stm32f4xx_exti.o
 .comment       0x00000000       0x71 ..\obj\vector.o
 .comment       0x00000000       0x71 ..\obj\misc.o
 .comment       0x00000000       0x71 ..\obj\usb_dcd.o
 .comment       0x00000000       0x71 ..\obj\matrix.o
 .comment       0x00000000       0x71 ..\obj\MPU6050.o
 .comment       0x00000000       0x71 ..\obj\air_speed.o
 .comment       0x00000000       0x71 ..\obj\heap_1.o
 .comment       0x00000000       0x71 ..\obj\usbd_ioreq.o
 .comment       0x00000000       0x71 ..\obj\stm32f4xx_tim.o
 .comment       0x00000000       0x71 ..\obj\stm32f4xx_dbgmcu.o

.ARM.attributes
                0x00000000       0x35
 .ARM.attributes
                0x00000000       0x37 ..\obj\MS5611.o
 .ARM.attributes
                0x00000037       0x37 ..\obj\loops.o
 .ARM.attributes
                0x0000006e       0x37 ..\obj\stm32f4xx_syscfg.o
 .ARM.attributes
                0x000000a5       0x37 ..\obj\usb_core.o
 .ARM.attributes
                0x000000dc       0x37 ..\obj\DCM.o
 .ARM.attributes
                0x00000113       0x37 ..\obj\delay.o
 .ARM.attributes
                0x0000014a       0x37 ..\obj\stm32f4xx_sdio.o
 .ARM.attributes
                0x00000181       0x37 ..\obj\flash.o
 .ARM.attributes
                0x000001b8       0x37 ..\obj\power_propulsion.o
 .ARM.attributes
                0x000001ef       0x37 ..\obj\stm32f4xx_usart.o
 .ARM.attributes
                0x00000226       0x37 ..\obj\HMC5883L.o
 .ARM.attributes
                0x0000025d       0x37 ..\obj\stm32f4_discovery_sdio_sd.o
 .ARM.attributes
                0x00000294       0x37 ..\obj\packets.o
 .ARM.attributes
                0x000002cb       0x37 ..\obj\RC.o
 .ARM.attributes
                0x00000302       0x37 ..\obj\diskio.o
 .ARM.attributes
                0x00000339       0x37 ..\obj\startup_stm32f4xx.o
 .ARM.attributes
                0x00000370       0x37 ..\obj\stm32f4_discovery.o
 .ARM.attributes
                0x000003a7       0x37 ..\obj\MAVLINK_STM32.o
 .ARM.attributes
                0x000003de       0x37 ..\obj\stm32f4xx_iwdg.o
 .ARM.attributes
                0x00000415       0x37 ..\obj\usbd_core.o
 .ARM.attributes
                0x0000044c       0x37 ..\obj\main.o
 .ARM.attributes
                0x00000483       0x37 ..\obj\ublox.o
 .ARM.attributes
                0x000004ba       0x37 ..\obj\stm32f4xx_rcc.o
 .ARM.attributes
                0x000004f1       0x37 ..\obj\stm32f4xx_it.o
 .ARM.attributes
                0x00000528       0x37 ..\obj\arduimu.o
 .ARM.attributes
                0x0000055f       0x37 ..\obj\timers.o
 .ARM.attributes
                0x00000596       0x37 ..\obj\log.o
 .ARM.attributes
                0x000005cd       0x37 ..\obj\ADC.o
 .ARM.attributes
                0x00000604       0x37 ..\obj\stm32f4xx_adc.o
 .ARM.attributes
                0x0000063b       0x37 ..\obj\RPM.o
 .ARM.attributes
                0x00000672       0x37 ..\obj\tasks.o
 .ARM.attributes
                0x000006a9       0x37 ..\obj\modem.o
 .ARM.attributes
                0x000006e0       0x37 ..\obj\externalPackets.o
 .ARM.attributes
                0x00000717       0x37 ..\obj\PWM_output.o
 .ARM.attributes
                0x0000074e       0x37 ..\obj\stm32f4xx_gpio.o
 .ARM.attributes
                0x00000785       0x37 ..\obj\stm32f4xx_flash.o
 .ARM.attributes
                0x000007bc       0x37 ..\obj\list.o
 .ARM.attributes
                0x000007f3       0x37 ..\obj\system_stm32f4xx.o
 .ARM.attributes
                0x0000082a       0x37 ..\obj\syscalls.o
 .ARM.attributes
                0x00000861       0x37 ..\obj\stm32f4xx_dma.o
 .ARM.attributes
                0x00000898       0x37 ..\obj\gps.o
 .ARM.attributes
                0x000008cf       0x37 ..\obj\usb_bsp.o
 .ARM.attributes
                0x00000906       0x37 ..\obj\usbd_req.o
 .ARM.attributes
                0x0000093d       0x37 ..\obj\queue.o
 .ARM.attributes
                0x00000974       0x37 ..\obj\port.o
 .ARM.attributes
                0x000009ab       0x37 ..\obj\usb_dcd_int.o
 .ARM.attributes
                0x000009e2       0x37 ..\obj\debug.o
 .ARM.attributes
                0x00000a19       0x37 ..\obj\ff.o
 .ARM.attributes
                0x00000a50       0x37 ..\obj\stm32f4xx_i2c.o
 .ARM.attributes
                0x00000a87       0x37 ..\obj\stm32f4xx_exti.o
 .ARM.attributes
                0x00000abe       0x37 ..\obj\vector.o
 .ARM.attributes
                0x00000af5       0x37 ..\obj\misc.o
 .ARM.attributes
                0x00000b2c       0x37 ..\obj\usb_dcd.o
 .ARM.attributes
                0x00000b63       0x37 ..\obj\matrix.o
 .ARM.attributes
                0x00000b9a       0x37 ..\obj\MPU6050.o
 .ARM.attributes
                0x00000bd1       0x37 ..\obj\air_speed.o
 .ARM.attributes
                0x00000c08       0x37 ..\obj\heap_1.o
 .ARM.attributes
                0x00000c3f       0x37 ..\obj\usbd_ioreq.o
 .ARM.attributes
                0x00000c76       0x37 ..\obj\stm32f4xx_tim.o
 .ARM.attributes
                0x00000cad       0x37 ..\obj\stm32f4xx_dbgmcu.o
 .ARM.attributes
                0x00000ce4       0x32 c:/program files (x86)/gnu tools arm embedded/4.9 2014q4/bin/../lib/gcc/arm-none-eabi/4.9.3/../../../../arm-none-eabi/lib/armv7e-m/softfp\libm.a(lib_a-s_cos.o)
 .ARM.attributes
                0x00000d16       0x32 c:/program files (x86)/gnu tools arm embedded/4.9 2014q4/bin/../lib/gcc/arm-none-eabi/4.9.3/../../../../arm-none-eabi/lib/armv7e-m/softfp\libm.a(lib_a-s_sin.o)
 .ARM.attributes
                0x00000d48       0x32 c:/program files (x86)/gnu tools arm embedded/4.9 2014q4/bin/../lib/gcc/arm-none-eabi/4.9.3/../../../../arm-none-eabi/lib/armv7e-m/softfp\libm.a(lib_a-w_asin.o)
 .ARM.attributes
                0x00000d7a       0x32 c:/program files (x86)/gnu tools arm embedded/4.9 2014q4/bin/../lib/gcc/arm-none-eabi/4.9.3/../../../../arm-none-eabi/lib/armv7e-m/softfp\libm.a(lib_a-w_atan2.o)
 .ARM.attributes
                0x00000dac       0x32 c:/program files (x86)/gnu tools arm embedded/4.9 2014q4/bin/../lib/gcc/arm-none-eabi/4.9.3/../../../../arm-none-eabi/lib/armv7e-m/softfp\libm.a(lib_a-w_pow.o)
 .ARM.attributes
                0x00000dde       0x32 c:/program files (x86)/gnu tools arm embedded/4.9 2014q4/bin/../lib/gcc/arm-none-eabi/4.9.3/../../../../arm-none-eabi/lib/armv7e-m/softfp\libm.a(lib_a-w_sqrt.o)
 .ARM.attributes
                0x00000e10       0x32 c:/program files (x86)/gnu tools arm embedded/4.9 2014q4/bin/../lib/gcc/arm-none-eabi/4.9.3/../../../../arm-none-eabi/lib/armv7e-m/softfp\libm.a(lib_a-e_asin.o)
 .ARM.attributes
                0x00000e42       0x32 c:/program files (x86)/gnu tools arm embedded/4.9 2014q4/bin/../lib/gcc/arm-none-eabi/4.9.3/../../../../arm-none-eabi/lib/armv7e-m/softfp\libm.a(lib_a-e_atan2.o)
 .ARM.attributes
                0x00000e74       0x32 c:/program files (x86)/gnu tools arm embedded/4.9 2014q4/bin/../lib/gcc/arm-none-eabi/4.9.3/../../../../arm-none-eabi/lib/armv7e-m/softfp\libm.a(lib_a-e_pow.o)
 .ARM.attributes
                0x00000ea6       0x32 c:/program files (x86)/gnu tools arm embedded/4.9 2014q4/bin/../lib/gcc/arm-none-eabi/4.9.3/../../../../arm-none-eabi/lib/armv7e-m/softfp\libm.a(lib_a-e_rem_pio2.o)
 .ARM.attributes
                0x00000ed8       0x32 c:/program files (x86)/gnu tools arm embedded/4.9 2014q4/bin/../lib/gcc/arm-none-eabi/4.9.3/../../../../arm-none-eabi/lib/armv7e-m/softfp\libm.a(lib_a-e_sqrt.o)
 .ARM.attributes
                0x00000f0a       0x32 c:/program files (x86)/gnu tools arm embedded/4.9 2014q4/bin/../lib/gcc/arm-none-eabi/4.9.3/../../../../arm-none-eabi/lib/armv7e-m/softfp\libm.a(lib_a-k_cos.o)
 .ARM.attributes
                0x00000f3c       0x32 c:/program files (x86)/gnu tools arm embedded/4.9 2014q4/bin/../lib/gcc/arm-none-eabi/4.9.3/../../../../arm-none-eabi/lib/armv7e-m/softfp\libm.a(lib_a-k_rem_pio2.o)
 .ARM.attributes
                0x00000f6e       0x32 c:/program files (x86)/gnu tools arm embedded/4.9 2014q4/bin/../lib/gcc/arm-none-eabi/4.9.3/../../../../arm-none-eabi/lib/armv7e-m/softfp\libm.a(lib_a-k_sin.o)
 .ARM.attributes
                0x00000fa0       0x32 c:/program files (x86)/gnu tools arm embedded/4.9 2014q4/bin/../lib/gcc/arm-none-eabi/4.9.3/../../../../arm-none-eabi/lib/armv7e-m/softfp\libm.a(lib_a-s_atan.o)
 .ARM.attributes
                0x00000fd2       0x32 c:/program files (x86)/gnu tools arm embedded/4.9 2014q4/bin/../lib/gcc/arm-none-eabi/4.9.3/../../../../arm-none-eabi/lib/armv7e-m/softfp\libm.a(lib_a-s_fabs.o)
 .ARM.attributes
                0x00001004       0x32 c:/program files (x86)/gnu tools arm embedded/4.9 2014q4/bin/../lib/gcc/arm-none-eabi/4.9.3/../../../../arm-none-eabi/lib/armv7e-m/softfp\libm.a(lib_a-s_finite.o)
 .ARM.attributes
                0x00001036       0x32 c:/program files (x86)/gnu tools arm embedded/4.9 2014q4/bin/../lib/gcc/arm-none-eabi/4.9.3/../../../../arm-none-eabi/lib/armv7e-m/softfp\libm.a(lib_a-s_floor.o)
 .ARM.attributes
                0x00001068       0x32 c:/program files (x86)/gnu tools arm embedded/4.9 2014q4/bin/../lib/gcc/arm-none-eabi/4.9.3/../../../../arm-none-eabi/lib/armv7e-m/softfp\libm.a(lib_a-s_fpclassify.o)
 .ARM.attributes
                0x0000109a       0x32 c:/program files (x86)/gnu tools arm embedded/4.9 2014q4/bin/../lib/gcc/arm-none-eabi/4.9.3/../../../../arm-none-eabi/lib/armv7e-m/softfp\libm.a(lib_a-s_lib_ver.o)
 .ARM.attributes
                0x000010cc       0x32 c:/program files (x86)/gnu tools arm embedded/4.9 2014q4/bin/../lib/gcc/arm-none-eabi/4.9.3/../../../../arm-none-eabi/lib/armv7e-m/softfp\libm.a(lib_a-s_matherr.o)
 .ARM.attributes
                0x000010fe       0x32 c:/program files (x86)/gnu tools arm embedded/4.9 2014q4/bin/../lib/gcc/arm-none-eabi/4.9.3/../../../../arm-none-eabi/lib/armv7e-m/softfp\libm.a(lib_a-s_nan.o)
 .ARM.attributes
                0x00001130       0x32 c:/program files (x86)/gnu tools arm embedded/4.9 2014q4/bin/../lib/gcc/arm-none-eabi/4.9.3/../../../../arm-none-eabi/lib/armv7e-m/softfp\libm.a(lib_a-s_rint.o)
 .ARM.attributes
                0x00001162       0x32 c:/program files (x86)/gnu tools arm embedded/4.9 2014q4/bin/../lib/gcc/arm-none-eabi/4.9.3/../../../../arm-none-eabi/lib/armv7e-m/softfp\libm.a(lib_a-s_scalbn.o)
 .ARM.attributes
                0x00001194       0x32 c:/program files (x86)/gnu tools arm embedded/4.9 2014q4/bin/../lib/gcc/arm-none-eabi/4.9.3/../../../../arm-none-eabi/lib/armv7e-m/softfp\libm.a(lib_a-s_copysign.o)
 .ARM.attributes
                0x000011c6       0x22 c:/program files (x86)/gnu tools arm embedded/4.9 2014q4/bin/../lib/gcc/arm-none-eabi/4.9.3/armv7e-m/softfp\libgcc.a(_arm_addsubdf3.o)
 .ARM.attributes
                0x000011e8       0x22 c:/program files (x86)/gnu tools arm embedded/4.9 2014q4/bin/../lib/gcc/arm-none-eabi/4.9.3/armv7e-m/softfp\libgcc.a(_arm_muldivdf3.o)
 .ARM.attributes
                0x0000120a       0x22 c:/program files (x86)/gnu tools arm embedded/4.9 2014q4/bin/../lib/gcc/arm-none-eabi/4.9.3/armv7e-m/softfp\libgcc.a(_arm_cmpdf2.o)
 .ARM.attributes
                0x0000122c       0x22 c:/program files (x86)/gnu tools arm embedded/4.9 2014q4/bin/../lib/gcc/arm-none-eabi/4.9.3/armv7e-m/softfp\libgcc.a(_arm_fixdfsi.o)
 .ARM.attributes
                0x0000124e       0x22 c:/program files (x86)/gnu tools arm embedded/4.9 2014q4/bin/../lib/gcc/arm-none-eabi/4.9.3/armv7e-m/softfp\libgcc.a(_arm_fixunsdfsi.o)
 .ARM.attributes
                0x00001270       0x22 c:/program files (x86)/gnu tools arm embedded/4.9 2014q4/bin/../lib/gcc/arm-none-eabi/4.9.3/armv7e-m/softfp\libgcc.a(_arm_truncdfsf2.o)
 .ARM.attributes
                0x00001292       0x22 c:/program files (x86)/gnu tools arm embedded/4.9 2014q4/bin/../lib/gcc/arm-none-eabi/4.9.3/armv7e-m/softfp\libgcc.a(_arm_addsubsf3.o)
 .ARM.attributes
                0x000012b4       0x32 c:/program files (x86)/gnu tools arm embedded/4.9 2014q4/bin/../lib/gcc/arm-none-eabi/4.9.3/../../../../arm-none-eabi/lib/armv7e-m/softfp\libg.a(lib_a-errno.o)
 .ARM.attributes
                0x000012e6       0x32 c:/program files (x86)/gnu tools arm embedded/4.9 2014q4/bin/../lib/gcc/arm-none-eabi/4.9.3/../../../../arm-none-eabi/lib/armv7e-m/softfp\libg.a(lib_a-impure.o)
 .ARM.attributes
                0x00001318       0x20 c:/program files (x86)/gnu tools arm embedded/4.9 2014q4/bin/../lib/gcc/arm-none-eabi/4.9.3/../../../../arm-none-eabi/lib/armv7e-m/softfp\libg.a(lib_a-memcpy.o)
 .ARM.attributes
                0x00001338       0x32 c:/program files (x86)/gnu tools arm embedded/4.9 2014q4/bin/../lib/gcc/arm-none-eabi/4.9.3/../../../../arm-none-eabi/lib/armv7e-m/softfp\libg.a(lib_a-memset.o)
 .ARM.attributes
                0x0000136a       0x32 c:/program files (x86)/gnu tools arm embedded/4.9 2014q4/bin/../lib/gcc/arm-none-eabi/4.9.3/../../../../arm-none-eabi/lib/armv7e-m/softfp\libg.a(lib_a-sprintf.o)
 .ARM.attributes
                0x0000139c       0x32 c:/program files (x86)/gnu tools arm embedded/4.9 2014q4/bin/../lib/gcc/arm-none-eabi/4.9.3/../../../../arm-none-eabi/lib/armv7e-m/softfp\libg.a(lib_a-strcat.o)
 .ARM.attributes
                0x000013ce       0x32 c:/program files (x86)/gnu tools arm embedded/4.9 2014q4/bin/../lib/gcc/arm-none-eabi/4.9.3/../../../../arm-none-eabi/lib/armv7e-m/softfp\libg.a(lib_a-strcpy.o)
 .ARM.attributes
                0x00001400       0x32 c:/program files (x86)/gnu tools arm embedded/4.9 2014q4/bin/../lib/gcc/arm-none-eabi/4.9.3/../../../../arm-none-eabi/lib/armv7e-m/softfp\libg.a(lib_a-svfprintf.o)
 .ARM.attributes
                0x00001432       0x32 c:/program files (x86)/gnu tools arm embedded/4.9 2014q4/bin/../lib/gcc/arm-none-eabi/4.9.3/../../../../arm-none-eabi/lib/armv7e-m/softfp\libg.a(lib_a-dtoa.o)
 .ARM.attributes
                0x00001464       0x32 c:/program files (x86)/gnu tools arm embedded/4.9 2014q4/bin/../lib/gcc/arm-none-eabi/4.9.3/../../../../arm-none-eabi/lib/armv7e-m/softfp\libg.a(lib_a-locale.o)
 .ARM.attributes
                0x00001496       0x32 c:/program files (x86)/gnu tools arm embedded/4.9 2014q4/bin/../lib/gcc/arm-none-eabi/4.9.3/../../../../arm-none-eabi/lib/armv7e-m/softfp\libg.a(lib_a-mallocr.o)
 .ARM.attributes
                0x000014c8       0x32 c:/program files (x86)/gnu tools arm embedded/4.9 2014q4/bin/../lib/gcc/arm-none-eabi/4.9.3/../../../../arm-none-eabi/lib/armv7e-m/softfp\libg.a(lib_a-memchr.o)
 .ARM.attributes
                0x000014fa       0x32 c:/program files (x86)/gnu tools arm embedded/4.9 2014q4/bin/../lib/gcc/arm-none-eabi/4.9.3/../../../../arm-none-eabi/lib/armv7e-m/softfp\libg.a(lib_a-mlock.o)
 .ARM.attributes
                0x0000152c       0x32 c:/program files (x86)/gnu tools arm embedded/4.9 2014q4/bin/../lib/gcc/arm-none-eabi/4.9.3/../../../../arm-none-eabi/lib/armv7e-m/softfp\libg.a(lib_a-mprec.o)
 .ARM.attributes
                0x0000155e       0x32 c:/program files (x86)/gnu tools arm embedded/4.9 2014q4/bin/../lib/gcc/arm-none-eabi/4.9.3/../../../../arm-none-eabi/lib/armv7e-m/softfp\libg.a(lib_a-sbrkr.o)
 .ARM.attributes
                0x00001590       0x32 c:/program files (x86)/gnu tools arm embedded/4.9 2014q4/bin/../lib/gcc/arm-none-eabi/4.9.3/../../../../arm-none-eabi/lib/armv7e-m/softfp\libg.a(lib_a-strlen.o)
 .ARM.attributes
                0x000015c2       0x32 c:/program files (x86)/gnu tools arm embedded/4.9 2014q4/bin/../lib/gcc/arm-none-eabi/4.9.3/../../../../arm-none-eabi/lib/armv7e-m/softfp\libg.a(lib_a-svfiprintf.o)
 .ARM.attributes
                0x000015f4       0x32 c:/program files (x86)/gnu tools arm embedded/4.9 2014q4/bin/../lib/gcc/arm-none-eabi/4.9.3/../../../../arm-none-eabi/lib/armv7e-m/softfp\libg.a(lib_a-callocr.o)
 .ARM.attributes
                0x00001626       0x32 c:/program files (x86)/gnu tools arm embedded/4.9 2014q4/bin/../lib/gcc/arm-none-eabi/4.9.3/../../../../arm-none-eabi/lib/armv7e-m/softfp\libg.a(lib_a-freer.o)
 .ARM.attributes
                0x00001658       0x32 c:/program files (x86)/gnu tools arm embedded/4.9 2014q4/bin/../lib/gcc/arm-none-eabi/4.9.3/../../../../arm-none-eabi/lib/armv7e-m/softfp\libg.a(lib_a-memmove.o)
 .ARM.attributes
                0x0000168a       0x32 c:/program files (x86)/gnu tools arm embedded/4.9 2014q4/bin/../lib/gcc/arm-none-eabi/4.9.3/../../../../arm-none-eabi/lib/armv7e-m/softfp\libg.a(lib_a-reallocr.o)
 .ARM.attributes
                0x000016bc       0x32 c:/program files (x86)/gnu tools arm embedded/4.9 2014q4/bin/../lib/gcc/arm-none-eabi/4.9.3/../../../../arm-none-eabi/lib/armv7e-m/softfp\libg.a(lib_a-reent.o)
 .ARM.attributes
                0x000016ee       0x22 c:/program files (x86)/gnu tools arm embedded/4.9 2014q4/bin/../lib/gcc/arm-none-eabi/4.9.3/armv7e-m/softfp\libgcc.a(_aeabi_uldivmod.o)
 .ARM.attributes
                0x00001710       0x32 c:/program files (x86)/gnu tools arm embedded/4.9 2014q4/bin/../lib/gcc/arm-none-eabi/4.9.3/armv7e-m/softfp\libgcc.a(bpabi.o)
 .ARM.attributes
                0x00001742       0x22 c:/program files (x86)/gnu tools arm embedded/4.9 2014q4/bin/../lib/gcc/arm-none-eabi/4.9.3/armv7e-m/softfp\libgcc.a(_dvmd_tls.o)
 .ARM.attributes
                0x00001764       0x32 c:/program files (x86)/gnu tools arm embedded/4.9 2014q4/bin/../lib/gcc/arm-none-eabi/4.9.3/armv7e-m/softfp\libgcc.a(_divdi3.o)
 .ARM.attributes
                0x00001796       0x32 c:/program files (x86)/gnu tools arm embedded/4.9 2014q4/bin/../lib/gcc/arm-none-eabi/4.9.3/armv7e-m/softfp\libgcc.a(_udivdi3.o)

.debug_frame    0x00000000     0x8f58
 .debug_frame   0x00000000      0x1e0 ..\obj\MS5611.o
 .debug_frame   0x000001e0      0x12c ..\obj\loops.o
 .debug_frame   0x0000030c       0xf4 ..\obj\stm32f4xx_syscfg.o
 .debug_frame   0x00000400      0x584 ..\obj\usb_core.o
 .debug_frame   0x00000984       0xe8 ..\obj\DCM.o
 .debug_frame   0x00000a6c       0x38 ..\obj\delay.o
 .debug_frame   0x00000aa4      0x48c ..\obj\stm32f4xx_sdio.o
 .debug_frame   0x00000f30       0x80 ..\obj\flash.o
 .debug_frame   0x00000fb0       0x74 ..\obj\power_propulsion.o
 .debug_frame   0x00001024      0x490 ..\obj\stm32f4xx_usart.o
 .debug_frame   0x000014b4      0x37c ..\obj\HMC5883L.o
 .debug_frame   0x00001830      0x548 ..\obj\stm32f4_discovery_sdio_sd.o
 .debug_frame   0x00001d78      0x2a4 ..\obj\packets.o
 .debug_frame   0x0000201c       0xa8 ..\obj\RC.o
 .debug_frame   0x000020c4       0xf0 ..\obj\diskio.o
 .debug_frame   0x000021b4       0x4c ..\obj\startup_stm32f4xx.o
 .debug_frame   0x00002200      0x184 ..\obj\stm32f4_discovery.o
 .debug_frame   0x00002384       0x7c ..\obj\MAVLINK_STM32.o
 .debug_frame   0x00002400       0xf0 ..\obj\stm32f4xx_iwdg.o
 .debug_frame   0x000024f0      0x258 ..\obj\usbd_core.o
 .debug_frame   0x00002748       0xec ..\obj\main.o
 .debug_frame   0x00002834      0x134 ..\obj\ublox.o
 .debug_frame   0x00002968      0x6d4 ..\obj\stm32f4xx_rcc.o
 .debug_frame   0x0000303c       0xe8 ..\obj\stm32f4xx_it.o
 .debug_frame   0x00003124      0x15c ..\obj\arduimu.o
 .debug_frame   0x00003280      0x20c ..\obj\timers.o
 .debug_frame   0x0000348c       0xf8 ..\obj\log.o
 .debug_frame   0x00003584       0x5c ..\obj\ADC.o
 .debug_frame   0x000035e0      0x5ec ..\obj\stm32f4xx_adc.o
 .debug_frame   0x00003bcc       0x50 ..\obj\RPM.o
 .debug_frame   0x00003c1c      0x4d0 ..\obj\tasks.o
 .debug_frame   0x000040ec      0x168 ..\obj\modem.o
 .debug_frame   0x00004254      0x108 ..\obj\externalPackets.o
 .debug_frame   0x0000435c       0xa8 ..\obj\PWM_output.o
 .debug_frame   0x00004404      0x23c ..\obj\stm32f4xx_gpio.o
 .debug_frame   0x00004640      0x44c ..\obj\stm32f4xx_flash.o
 .debug_frame   0x00004a8c       0xd8 ..\obj\list.o
 .debug_frame   0x00004b64       0x7c ..\obj\system_stm32f4xx.o
 .debug_frame   0x00004be0      0x168 ..\obj\syscalls.o
 .debug_frame   0x00004d48      0x308 ..\obj\stm32f4xx_dma.o
 .debug_frame   0x00005050      0x144 ..\obj\gps.o
 .debug_frame   0x00005194       0xa4 ..\obj\usb_bsp.o
 .debug_frame   0x00005238      0x210 ..\obj\usbd_req.o
 .debug_frame   0x00005448      0x380 ..\obj\queue.o
 .debug_frame   0x000057c8      0x1b8 ..\obj\port.o
 .debug_frame   0x00005980      0x230 ..\obj\usb_dcd_int.o
 .debug_frame   0x00005bb0       0xac ..\obj\debug.o
 .debug_frame   0x00005c5c      0x5f0 ..\obj\ff.o
 .debug_frame   0x0000624c      0x530 ..\obj\stm32f4xx_i2c.o
 .debug_frame   0x0000677c      0x148 ..\obj\stm32f4xx_exti.o
 .debug_frame   0x000068c4       0xb0 ..\obj\vector.o
 .debug_frame   0x00006974       0xd8 ..\obj\misc.o
 .debug_frame   0x00006a4c      0x1e8 ..\obj\usb_dcd.o
 .debug_frame   0x00006c34       0x38 ..\obj\matrix.o
 .debug_frame   0x00006c6c      0x35c ..\obj\MPU6050.o
 .debug_frame   0x00006fc8       0x80 ..\obj\air_speed.o
 .debug_frame   0x00007048       0x98 ..\obj\heap_1.o
 .debug_frame   0x000070e0      0x110 ..\obj\usbd_ioreq.o
 .debug_frame   0x000071f0      0xe54 ..\obj\stm32f4xx_tim.o
 .debug_frame   0x00008044       0xc8 ..\obj\stm32f4xx_dbgmcu.o
 .debug_frame   0x0000810c       0x40 c:/program files (x86)/gnu tools arm embedded/4.9 2014q4/bin/../lib/gcc/arm-none-eabi/4.9.3/../../../../arm-none-eabi/lib/armv7e-m/softfp\libm.a(lib_a-s_cos.o)
 .debug_frame   0x0000814c       0x40 c:/program files (x86)/gnu tools arm embedded/4.9 2014q4/bin/../lib/gcc/arm-none-eabi/4.9.3/../../../../arm-none-eabi/lib/armv7e-m/softfp\libm.a(lib_a-s_sin.o)
 .debug_frame   0x0000818c       0x40 c:/program files (x86)/gnu tools arm embedded/4.9 2014q4/bin/../lib/gcc/arm-none-eabi/4.9.3/../../../../arm-none-eabi/lib/armv7e-m/softfp\libm.a(lib_a-w_asin.o)
 .debug_frame   0x000081cc       0x20 c:/program files (x86)/gnu tools arm embedded/4.9 2014q4/bin/../lib/gcc/arm-none-eabi/4.9.3/../../../../arm-none-eabi/lib/armv7e-m/softfp\libm.a(lib_a-w_atan2.o)
 .debug_frame   0x000081ec       0x44 c:/program files (x86)/gnu tools arm embedded/4.9 2014q4/bin/../lib/gcc/arm-none-eabi/4.9.3/../../../../arm-none-eabi/lib/armv7e-m/softfp\libm.a(lib_a-w_pow.o)
 .debug_frame   0x00008230       0x44 c:/program files (x86)/gnu tools arm embedded/4.9 2014q4/bin/../lib/gcc/arm-none-eabi/4.9.3/../../../../arm-none-eabi/lib/armv7e-m/softfp\libm.a(lib_a-w_sqrt.o)
 .debug_frame   0x00008274       0x58 c:/program files (x86)/gnu tools arm embedded/4.9 2014q4/bin/../lib/gcc/arm-none-eabi/4.9.3/../../../../arm-none-eabi/lib/armv7e-m/softfp\libm.a(lib_a-e_asin.o)
 .debug_frame   0x000082cc       0x48 c:/program files (x86)/gnu tools arm embedded/4.9 2014q4/bin/../lib/gcc/arm-none-eabi/4.9.3/../../../../arm-none-eabi/lib/armv7e-m/softfp\libm.a(lib_a-e_atan2.o)
 .debug_frame   0x00008314       0x64 c:/program files (x86)/gnu tools arm embedded/4.9 2014q4/bin/../lib/gcc/arm-none-eabi/4.9.3/../../../../arm-none-eabi/lib/armv7e-m/softfp\libm.a(lib_a-e_pow.o)
 .debug_frame   0x00008378       0x48 c:/program files (x86)/gnu tools arm embedded/4.9 2014q4/bin/../lib/gcc/arm-none-eabi/4.9.3/../../../../arm-none-eabi/lib/armv7e-m/softfp\libm.a(lib_a-e_rem_pio2.o)
 .debug_frame   0x000083c0       0x30 c:/program files (x86)/gnu tools arm embedded/4.9 2014q4/bin/../lib/gcc/arm-none-eabi/4.9.3/../../../../arm-none-eabi/lib/armv7e-m/softfp\libm.a(lib_a-e_sqrt.o)
 .debug_frame   0x000083f0       0x4c c:/program files (x86)/gnu tools arm embedded/4.9 2014q4/bin/../lib/gcc/arm-none-eabi/4.9.3/../../../../arm-none-eabi/lib/armv7e-m/softfp\libm.a(lib_a-k_cos.o)
 .debug_frame   0x0000843c       0x54 c:/program files (x86)/gnu tools arm embedded/4.9 2014q4/bin/../lib/gcc/arm-none-eabi/4.9.3/../../../../arm-none-eabi/lib/armv7e-m/softfp\libm.a(lib_a-k_rem_pio2.o)
 .debug_frame   0x00008490       0x48 c:/program files (x86)/gnu tools arm embedded/4.9 2014q4/bin/../lib/gcc/arm-none-eabi/4.9.3/../../../../arm-none-eabi/lib/armv7e-m/softfp\libm.a(lib_a-k_sin.o)
 .debug_frame   0x000084d8       0x38 c:/program files (x86)/gnu tools arm embedded/4.9 2014q4/bin/../lib/gcc/arm-none-eabi/4.9.3/../../../../arm-none-eabi/lib/armv7e-m/softfp\libm.a(lib_a-s_atan.o)
 .debug_frame   0x00008510       0x20 c:/program files (x86)/gnu tools arm embedded/4.9 2014q4/bin/../lib/gcc/arm-none-eabi/4.9.3/../../../../arm-none-eabi/lib/armv7e-m/softfp\libm.a(lib_a-s_fabs.o)
 .debug_frame   0x00008530       0x20 c:/program files (x86)/gnu tools arm embedded/4.9 2014q4/bin/../lib/gcc/arm-none-eabi/4.9.3/../../../../arm-none-eabi/lib/armv7e-m/softfp\libm.a(lib_a-s_finite.o)
 .debug_frame   0x00008550       0x34 c:/program files (x86)/gnu tools arm embedded/4.9 2014q4/bin/../lib/gcc/arm-none-eabi/4.9.3/../../../../arm-none-eabi/lib/armv7e-m/softfp\libm.a(lib_a-s_floor.o)
 .debug_frame   0x00008584       0x34 c:/program files (x86)/gnu tools arm embedded/4.9 2014q4/bin/../lib/gcc/arm-none-eabi/4.9.3/../../../../arm-none-eabi/lib/armv7e-m/softfp\libm.a(lib_a-s_fpclassify.o)
 .debug_frame   0x000085b8       0x20 c:/program files (x86)/gnu tools arm embedded/4.9 2014q4/bin/../lib/gcc/arm-none-eabi/4.9.3/../../../../arm-none-eabi/lib/armv7e-m/softfp\libm.a(lib_a-s_matherr.o)
 .debug_frame   0x000085d8       0x20 c:/program files (x86)/gnu tools arm embedded/4.9 2014q4/bin/../lib/gcc/arm-none-eabi/4.9.3/../../../../arm-none-eabi/lib/armv7e-m/softfp\libm.a(lib_a-s_nan.o)
 .debug_frame   0x000085f8       0x3c c:/program files (x86)/gnu tools arm embedded/4.9 2014q4/bin/../lib/gcc/arm-none-eabi/4.9.3/../../../../arm-none-eabi/lib/armv7e-m/softfp\libm.a(lib_a-s_rint.o)
 .debug_frame   0x00008634       0x30 c:/program files (x86)/gnu tools arm embedded/4.9 2014q4/bin/../lib/gcc/arm-none-eabi/4.9.3/../../../../arm-none-eabi/lib/armv7e-m/softfp\libm.a(lib_a-s_scalbn.o)
 .debug_frame   0x00008664       0x20 c:/program files (x86)/gnu tools arm embedded/4.9 2014q4/bin/../lib/gcc/arm-none-eabi/4.9.3/../../../../arm-none-eabi/lib/armv7e-m/softfp\libm.a(lib_a-s_copysign.o)
 .debug_frame   0x00008684       0x20 c:/program files (x86)/gnu tools arm embedded/4.9 2014q4/bin/../lib/gcc/arm-none-eabi/4.9.3/../../../../arm-none-eabi/lib/armv7e-m/softfp\libg.a(lib_a-errno.o)
 .debug_frame   0x000086a4       0x34 c:/program files (x86)/gnu tools arm embedded/4.9 2014q4/bin/../lib/gcc/arm-none-eabi/4.9.3/../../../../arm-none-eabi/lib/armv7e-m/softfp\libg.a(lib_a-memset.o)
 .debug_frame   0x000086d8       0x84 c:/program files (x86)/gnu tools arm embedded/4.9 2014q4/bin/../lib/gcc/arm-none-eabi/4.9.3/../../../../arm-none-eabi/lib/armv7e-m/softfp\libg.a(lib_a-sprintf.o)
 .debug_frame   0x0000875c       0x28 c:/program files (x86)/gnu tools arm embedded/4.9 2014q4/bin/../lib/gcc/arm-none-eabi/4.9.3/../../../../arm-none-eabi/lib/armv7e-m/softfp\libg.a(lib_a-strcat.o)
 .debug_frame   0x00008784       0x20 c:/program files (x86)/gnu tools arm embedded/4.9 2014q4/bin/../lib/gcc/arm-none-eabi/4.9.3/../../../../arm-none-eabi/lib/armv7e-m/softfp\libg.a(lib_a-strcpy.o)
 .debug_frame   0x000087a4       0x40 c:/program files (x86)/gnu tools arm embedded/4.9 2014q4/bin/../lib/gcc/arm-none-eabi/4.9.3/../../../../arm-none-eabi/lib/armv7e-m/softfp\libg.a(lib_a-svfprintf.o)
 .debug_frame   0x000087e4       0x88 c:/program files (x86)/gnu tools arm embedded/4.9 2014q4/bin/../lib/gcc/arm-none-eabi/4.9.3/../../../../arm-none-eabi/lib/armv7e-m/softfp\libg.a(lib_a-dtoa.o)
 .debug_frame   0x0000886c       0x9c c:/program files (x86)/gnu tools arm embedded/4.9 2014q4/bin/../lib/gcc/arm-none-eabi/4.9.3/../../../../arm-none-eabi/lib/armv7e-m/softfp\libg.a(lib_a-locale.o)
 .debug_frame   0x00008908       0x58 c:/program files (x86)/gnu tools arm embedded/4.9 2014q4/bin/../lib/gcc/arm-none-eabi/4.9.3/../../../../arm-none-eabi/lib/armv7e-m/softfp\libg.a(lib_a-mallocr.o)
 .debug_frame   0x00008960       0x3c c:/program files (x86)/gnu tools arm embedded/4.9 2014q4/bin/../lib/gcc/arm-none-eabi/4.9.3/../../../../arm-none-eabi/lib/armv7e-m/softfp\libg.a(lib_a-memchr.o)
 .debug_frame   0x0000899c       0x30 c:/program files (x86)/gnu tools arm embedded/4.9 2014q4/bin/../lib/gcc/arm-none-eabi/4.9.3/../../../../arm-none-eabi/lib/armv7e-m/softfp\libg.a(lib_a-mlock.o)
 .debug_frame   0x000089cc      0x268 c:/program files (x86)/gnu tools arm embedded/4.9 2014q4/bin/../lib/gcc/arm-none-eabi/4.9.3/../../../../arm-none-eabi/lib/armv7e-m/softfp\libg.a(lib_a-mprec.o)
 .debug_frame   0x00008c34       0x2c c:/program files (x86)/gnu tools arm embedded/4.9 2014q4/bin/../lib/gcc/arm-none-eabi/4.9.3/../../../../arm-none-eabi/lib/armv7e-m/softfp\libg.a(lib_a-sbrkr.o)
 .debug_frame   0x00008c60       0x20 c:/program files (x86)/gnu tools arm embedded/4.9 2014q4/bin/../lib/gcc/arm-none-eabi/4.9.3/../../../../arm-none-eabi/lib/armv7e-m/softfp\libg.a(lib_a-strlen.o)
 .debug_frame   0x00008c80       0x78 c:/program files (x86)/gnu tools arm embedded/4.9 2014q4/bin/../lib/gcc/arm-none-eabi/4.9.3/../../../../arm-none-eabi/lib/armv7e-m/softfp\libg.a(lib_a-svfiprintf.o)
 .debug_frame   0x00008cf8       0x28 c:/program files (x86)/gnu tools arm embedded/4.9 2014q4/bin/../lib/gcc/arm-none-eabi/4.9.3/../../../../arm-none-eabi/lib/armv7e-m/softfp\libg.a(lib_a-callocr.o)
 .debug_frame   0x00008d20       0x74 c:/program files (x86)/gnu tools arm embedded/4.9 2014q4/bin/../lib/gcc/arm-none-eabi/4.9.3/../../../../arm-none-eabi/lib/armv7e-m/softfp\libg.a(lib_a-freer.o)
 .debug_frame   0x00008d94       0x30 c:/program files (x86)/gnu tools arm embedded/4.9 2014q4/bin/../lib/gcc/arm-none-eabi/4.9.3/../../../../arm-none-eabi/lib/armv7e-m/softfp\libg.a(lib_a-memmove.o)
 .debug_frame   0x00008dc4       0x60 c:/program files (x86)/gnu tools arm embedded/4.9 2014q4/bin/../lib/gcc/arm-none-eabi/4.9.3/../../../../arm-none-eabi/lib/armv7e-m/softfp\libg.a(lib_a-reallocr.o)
 .debug_frame   0x00008e24       0x58 c:/program files (x86)/gnu tools arm embedded/4.9 2014q4/bin/../lib/gcc/arm-none-eabi/4.9.3/../../../../arm-none-eabi/lib/armv7e-m/softfp\libg.a(lib_a-reent.o)
 .debug_frame   0x00008e7c       0x28 c:/program files (x86)/gnu tools arm embedded/4.9 2014q4/bin/../lib/gcc/arm-none-eabi/4.9.3/armv7e-m/softfp\libgcc.a(_aeabi_uldivmod.o)
 .debug_frame   0x00008ea4       0x50 c:/program files (x86)/gnu tools arm embedded/4.9 2014q4/bin/../lib/gcc/arm-none-eabi/4.9.3/armv7e-m/softfp\libgcc.a(bpabi.o)
 .debug_frame   0x00008ef4       0x34 c:/program files (x86)/gnu tools arm embedded/4.9 2014q4/bin/../lib/gcc/arm-none-eabi/4.9.3/armv7e-m/softfp\libgcc.a(_divdi3.o)
 .debug_frame   0x00008f28       0x30 c:/program files (x86)/gnu tools arm embedded/4.9 2014q4/bin/../lib/gcc/arm-none-eabi/4.9.3/armv7e-m/softfp\libgcc.a(_udivdi3.o)
